(dp1
S'output'
p2
S"<type 'exceptions.RuntimeError'> maximum recursion depth exceeded in cmp"
p3
sS'layer'
p4
S'/media/onzalo/datos/web2py/applications/ElAsistenteBackend/views/default/prueba.html'
p5
sS'code'
p6
S'response.write(\'<!DOCTYPE html>\\n<!--[if (gt IE 9)|!(IE)]><!--> <html class="no-js" lang="\', escape=False)\nresponse.write(T.accepted_language or \'en\')\nresponse.write(\'"> <!--<![endif]-->\\n  <head>\\n    <meta charset="utf-8">\\n    <!-- www.phpied.com/conditional-comments-block-downloads/ -->\\n    <!-- Always force latest IE rendering engine\\n         (even in intranet) & Chrome Frame\\n         Remove this if you use the .htaccess -->\\n    <meta http-equiv="X-UA-Compatible" content="IE=edge\', escape=False)\nresponse.write(not request.is_local and \',chrome=1\' or \'\')\nresponse.write(\'">\\n    <!--  Mobile Viewport Fix\\n          j.mp/mobileviewport & davidbcalhoun.com/2010/viewport-metatag\\n          device-width: Occupy full width of the screen in its current orientation\\n          initial-scale = 1.0 retains dimensions instead of zooming out if page height > device height\\n          user-scalable = yes allows the user to zoom in -->\\n    <meta name="viewport" content="width=device-width, initial-scale=1.0">\\n    <title>\', escape=False)\nresponse.write(response.title or request.application)\nresponse.write(\'</title>\\n    <!-- http://dev.w3.org/html5/markup/meta.name.html -->\\n    <meta name="application-name" content="\', escape=False)\nresponse.write(request.application)\nresponse.write(\'">\\n    <!-- Speaking of Google, don\\\'t forget to set your site up:\\n         http://google.com/webmasters -->\\n    <meta name="google-site-verification" content="">\\n    <!-- include stylesheets -->\\n    <link rel="stylesheet" href="\', escape=False)\nresponse.write(URL(\'static\',\'css/bootstrap.min.css\'))\nresponse.write(\'"/>\\n    <link rel="stylesheet" href="\', escape=False)\nresponse.write(URL(\'static\',\'css/web2py-bootstrap3.css\'))\nresponse.write(\'"/>\\n    <link rel="shortcut icon" href="\', escape=False)\nresponse.write(URL(\'static\',\'images/favicon.ico\'))\nresponse.write(\'" type="image/x-icon">\\n    <link rel="apple-touch-icon" href="\', escape=False)\nresponse.write(URL(\'static\',\'images/favicon.png\'))\nresponse.write(\'">\\n    <!-- All JavaScript at the bottom, except for Modernizr which enables\\n         HTML5 elements & feature detects -->\\n    <script src="\', escape=False)\nresponse.write(URL(\'static\',\'js/modernizr-2.8.3.min.js\'))\nresponse.write(\'"></script>\\n    <!--[if lt IE 9]>\\n        <script src="\', escape=False)\nresponse.write(URL(\'static\',\'js/respond-1.4.2.min.js\'))\nresponse.write(\'"></script>\\n        <![endif]-->\\n    <!-- Favicons -->\\n    \', escape=False)\nresponse.write(\'<script type="text/javascript"><!--\\n    // These variables are used by the web2py_ajax_init function in web2py_ajax.js (which is loaded below).\\n    var w2p_ajax_confirm_message = "\', escape=False)\nresponse.write(T(\'Are you sure you want to delete this object?\'))\nresponse.write(\'";\\n    var w2p_ajax_disable_with_message = "\', escape=False)\nresponse.write(T(\'Working...\'))\nresponse.write(\'";\\n    var w2p_ajax_date_format = "\', escape=False)\nresponse.write(T(\'%Y-%m-%d\'))\nresponse.write(\'";\\n    var w2p_ajax_datetime_format = "\', escape=False)\nresponse.write(T(\'%Y-%m-%d %H:%M:%S\'))\nresponse.write(\'";\\n    var ajax_error_500 = \\\'\', escape=False)\nresponse.write(T.M(\'An error occured, please [[reload %s]] the page\') % URL(args=request.args, vars=request.get_vars))\nresponse.write("\'\\n    //--></script>\\n", escape=False)\nresponse.files.insert(0,URL(\'static\',\'js/jquery.js\'))\nresponse.files.insert(1,URL(\'static\',\'css/calendar.css\'))\nresponse.files.insert(2,URL(\'static\',\'js/calendar.js\'))\nresponse.files.insert(3,URL(\'static\',\'js/web2py.js\'))\nresponse.include_meta()\nresponse.include_files()\nresponse.write(\'\\n\', escape=False)\nresponse.write(\' <!-- this includes jquery.js, calendar.js/.css and web2py.js -->\\n    \', escape=False)\nresponse.write(\'\\n    \', escape=False)\n# using sidebars need to know what sidebar you want to use\nmc0 = \'col-md-12\'\nmc1 = \'col-md-9\'\nmc2 = \'col-md-6\'\nleft_sidebar_enabled = globals().get(\'left_sidebar_enabled\', False)\nright_sidebar_enabled = globals().get(\'right_sidebar_enabled\', False)\nmiddle_column = {0: mc0, 1: mc1, 2: mc2}[\n(left_sidebar_enabled and 1 or 0)+(right_sidebar_enabled and 1 or 0)]\nresponse.write(\'\\n  </head>\\n  <body>\\n    <!--[if lt IE 8]><p class="browserupgrade">You are using an <strong>outdated</strong> browser. Please <a href="http://browsehappy.com/">upgrade your browser</a> to improve your experience.</p><![endif]-->\\n    <div class="w2p_flash alert alert-dismissable">\', escape=False)\nresponse.write(response.flash or \'\')\nresponse.write(\'</div>\\n    <!-- Navbar ======================================= -->\\n    <nav class="navbar navbar-default navbar-fixed-top" role="navigation">\\n      <div class="container-fluid">\\n        <div class="navbar-header">\\n          <button type="button" class="navbar-toggle" data-toggle="collapse" data-target=".navbar-collapse">\\n            <span class="sr-only">Toggle navigation</span>\\n            <span class="icon-bar"></span>\\n            <span class="icon-bar"></span>\\n            <span class="icon-bar"></span>\\n          </button>\\n          \', escape=False)\nresponse.write(response.logo or \'\')\nresponse.write(\'\\n        </div>\\n        <div class="collapse navbar-collapse navbar-ex1-collapse">\\n          <ul class="nav navbar-nav navbar-right">\\n            \', escape=False)\nresponse.write(\'auth\' in globals() and auth.navbar(\'Welcome\',mode=\'dropdown\') or \'\')\nresponse.write(\'\\n          </ul>\\n          \', escape=False)\nif response.menu:\n    response.write(\'\\n          \', escape=False)\n    response.write(MENU(response.menu, _class=\'nav navbar-nav\',li_class=\'dropdown\',ul_class=\'dropdown-menu\'))\n    response.write(\'\\n          \', escape=False)\n    pass\nresponse.write(\'\\n        </div>\\n      </div>\\n    </nav>\\n    <!-- Masthead ===================================== -->    \\n    \', escape=False)\nresponse.write(\'\\n    \', escape=False)\nresponse.write(\'\\n    <!-- Main ========================================= -->\\n    <!-- Begin page content -->\\n    <div class="container-fluid main-container">\\n      \', escape=False)\nif left_sidebar_enabled:\n    response.write(\'\\n        <div class="col-md-3 left-sidebar">\\n            \', escape=False)\n    response.write(\'\\n            <h3>Left Sidebar</h3>\\n            <p></p>\\n            \', escape=False)\n    response.write(\'\\n        </div>\\n      \', escape=False)\n    pass\nresponse.write(\'\\n\\n      <div class="\', escape=False)\nresponse.write(middle_column)\nresponse.write(\'">\\n        \', escape=False)\nresponse.write(\'\\n        \', escape=False)\nresponse.write(\'\\n<h1>This is the default/prueba.html template</h1>\\n\', escape=False)\nresponse.write(BEAUTIFY(response._vars))\nresponse.write(\'\\n\', escape=False)\nresponse.write(\'\\n        \', escape=False)\nresponse.write(\'\\n      </div>\\n\\n      \', escape=False)\nif right_sidebar_enabled:\n    response.write(\'\\n        <div class="col-md-3">\\n            \', escape=False)\n    response.write(\'\\n            <h3>Right Sidebar</h3>\\n            <p></p>\\n            \', escape=False)\n    response.write(\'\\n        </div>\\n      \', escape=False)\n    pass\nresponse.write(\'\\n\\n    </div>\\n\\n    \', escape=False)\nresponse.write(\' <!-- this is default footer -->      \\n    <footer class="footer">\\n      <div class="container-fluid">\\n        <div class="copyright pull-left">\', escape=False)\nresponse.write(T(\'Copyright\'))\nresponse.write(\' &#169; \', escape=False)\nresponse.write(request.now.year)\nresponse.write(\'</div>\\n          <div id="poweredBy" class="pull-right">\\n            \', escape=False)\nresponse.write(T(\'Powered by\'))\nresponse.write(\'\\n            <a href="http://www.web2py.com/">web2py</a>\\n          </div>\\n      </div>\\n    </footer>\\n    \', escape=False)\nresponse.write(\'\\n    <!-- The javascript =============================== -->\\n    <script src="\', escape=False)\nresponse.write(URL(\'static\',\'js/bootstrap.min.js\'))\nresponse.write(\'"></script>\\n    <script src="\', escape=False)\nresponse.write(URL(\'static\',\'js/web2py-bootstrap3.js\'))\nresponse.write(\'"></script>\\n    \', escape=False)\nresponse.write(\'\\n    \', escape=False)\nif response.google_analytics_id:\n    response.write(\'\\n    <!-- Analytics ==================================== -->\\n    <script src="\', escape=False)\n    response.write(URL(\'static\',\'js/analytics.min.js\'))\n    response.write(\'"></script>\\n    <script type="text/javascript">\\n      analytics.initialize({\\n      \\\'Google Analytics\\\':{trackingId:\\\'\', escape=False)\n    response.write(response.google_analytics_id)\n    response.write("\'}\\n      });\\n    </script>\\n    ", escape=False)\n    pass\nresponse.write(\'\\n    <!-- Share ============================y============ -->\\n    <script src="\', escape=False)\nresponse.write(URL(\'static\',\'js/share.js\',vars=dict(static=URL(\'static\',\'images\'))))\nresponse.write(\'"></script>\\n  </body>\\n</html>\\n\', escape=False)'
p7
sS'snapshot'
p8
(dp9
sS'traceback'
p10
S'Traceback (most recent call last):\n  File "/media/onzalo/datos/web2py/gluon/restricted.py", line 227, in restricted\n    exec ccode in environment\n  File "/media/onzalo/datos/web2py/applications/ElAsistenteBackend/views/default/prueba.html", line 75, in <module>\n  File "/media/onzalo/datos/web2py/gluon/globals.py", line 430, in write\n    self.body.write(xmlescape(data))\n  File "/media/onzalo/datos/web2py/gluon/html.py", line 131, in xmlescape\n    return data.xml()\n  File "/media/onzalo/datos/web2py/gluon/html.py", line 965, in xml\n    (fa, co) = self._xml()\n  File "/media/onzalo/datos/web2py/gluon/html.py", line 957, in _xml\n    self.components])\n  File "/media/onzalo/datos/web2py/gluon/html.py", line 131, in xmlescape\n    return data.xml()\n  File "/media/onzalo/datos/web2py/gluon/html.py", line 965, in xml\n    (fa, co) = self._xml()\n  File "/media/onzalo/datos/web2py/gluon/html.py", line 957, in _xml\n    self.components])\n  File "/media/onzalo/datos/web2py/gluon/html.py", line 131, in xmlescape\n    return data.xml()\n  File "/media/onzalo/datos/web2py/gluon/html.py", line 965, in xml\n    (fa, co) = self._xml()\n  File "/media/onzalo/datos/web2py/gluon/html.py", line 957, in _xml\n    self.components])\n  File "/media/onzalo/datos/web2py/gluon/html.py", line 131, in xmlescape\n    return data.xml()\n  File "/media/onzalo/datos/web2py/gluon/html.py", line 965, in xml\n    (fa, co) = self._xml()\n  File "/media/onzalo/datos/web2py/gluon/html.py", line 957, in _xml\n    self.components])\n  File "/media/onzalo/datos/web2py/gluon/html.py", line 131, in xmlescape\n    return data.xml()\n  File "/media/onzalo/datos/web2py/gluon/html.py", line 965, in xml\n    (fa, co) = self._xml()\n  File "/media/onzalo/datos/web2py/gluon/html.py", line 957, in _xml\n    self.components])\n  File "/media/onzalo/datos/web2py/gluon/html.py", line 131, in xmlescape\n    return data.xml()\n  File "/media/onzalo/datos/web2py/gluon/html.py", line 965, in xml\n    (fa, co) = self._xml()\n  File "/media/onzalo/datos/web2py/gluon/html.py", line 957, in _xml\n    self.components])\n  File "/media/onzalo/datos/web2py/gluon/html.py", line 131, in xmlescape\n    return data.xml()\n  File "/media/onzalo/datos/web2py/gluon/html.py", line 965, in xml\n    (fa, co) = self._xml()\n  File "/media/onzalo/datos/web2py/gluon/html.py", line 957, in _xml\n    self.components])\n  File "/media/onzalo/datos/web2py/gluon/html.py", line 131, in xmlescape\n    return data.xml()\n  File "/media/onzalo/datos/web2py/gluon/html.py", line 965, in xml\n    (fa, co) = self._xml()\n  File "/media/onzalo/datos/web2py/gluon/html.py", line 957, in _xml\n    self.components])\n  File "/media/onzalo/datos/web2py/gluon/html.py", line 131, in xmlescape\n    return data.xml()\n  File "/media/onzalo/datos/web2py/gluon/html.py", line 965, in xml\n    (fa, co) = self._xml()\n  File "/media/onzalo/datos/web2py/gluon/html.py", line 957, in _xml\n    self.components])\n  File "/media/onzalo/datos/web2py/gluon/html.py", line 131, in xmlescape\n    return data.xml()\n  File "/media/onzalo/datos/web2py/gluon/html.py", line 965, in xml\n    (fa, co) = self._xml()\n  File "/media/onzalo/datos/web2py/gluon/html.py", line 957, in _xml\n    self.components])\n  File "/media/onzalo/datos/web2py/gluon/html.py", line 131, in xmlescape\n    return data.xml()\n  File "/media/onzalo/datos/web2py/gluon/html.py", line 965, in xml\n    (fa, co) = self._xml()\n  File "/media/onzalo/datos/web2py/gluon/html.py", line 957, in _xml\n    self.components])\n  File "/media/onzalo/datos/web2py/gluon/html.py", line 131, in xmlescape\n    return data.xml()\n  File "/media/onzalo/datos/web2py/gluon/html.py", line 965, in xml\n    (fa, co) = self._xml()\n  File "/media/onzalo/datos/web2py/gluon/html.py", line 957, in _xml\n    self.components])\n  File "/media/onzalo/datos/web2py/gluon/html.py", line 135, in xmlescape\n    data = str(data)\n  File "/media/onzalo/datos/web2py/gluon/packages/dal/pydal/objects.py", line 78, in <lambda>\n    __str__ = __repr__ = lambda self: \'<Row %s>\' % self.as_dict(custom_types=[LazySet])\n  File "/media/onzalo/datos/web2py/gluon/packages/dal/pydal/objects.py", line 121, in as_dict\n    d[k] = v.as_dict()\n  File "/media/onzalo/datos/web2py/gluon/packages/dal/pydal/objects.py", line 121, in as_dict\n    d[k] = v.as_dict()\n  File "/media/onzalo/datos/web2py/gluon/packages/dal/pydal/objects.py", line 121, in as_dict\n    d[k] = v.as_dict()\n  File "/media/onzalo/datos/web2py/gluon/packages/dal/pydal/objects.py", line 121, in as_dict\n    d[k] = v.as_dict()\n  File "/media/onzalo/datos/web2py/gluon/packages/dal/pydal/objects.py", line 121, in as_dict\n    d[k] = v.as_dict()\n  File "/media/onzalo/datos/web2py/gluon/packages/dal/pydal/objects.py", line 121, in as_dict\n    d[k] = v.as_dict()\n  File "/media/onzalo/datos/web2py/gluon/packages/dal/pydal/objects.py", line 121, in as_dict\n    d[k] = v.as_dict()\n  File "/media/onzalo/datos/web2py/gluon/packages/dal/pydal/objects.py", line 121, in as_dict\n    d[k] = v.as_dict()\n  File "/media/onzalo/datos/web2py/gluon/packages/dal/pydal/objects.py", line 121, in as_dict\n    d[k] = v.as_dict()\n  File "/media/onzalo/datos/web2py/gluon/packages/dal/pydal/objects.py", line 121, in as_dict\n    d[k] = v.as_dict()\n  File "/media/onzalo/datos/web2py/gluon/packages/dal/pydal/objects.py", line 121, in as_dict\n    d[k] = v.as_dict()\n  File "/media/onzalo/datos/web2py/gluon/packages/dal/pydal/objects.py", line 121, in as_dict\n    d[k] = v.as_dict()\n  File "/media/onzalo/datos/web2py/gluon/packages/dal/pydal/objects.py", line 121, in as_dict\n    d[k] = v.as_dict()\n  File "/media/onzalo/datos/web2py/gluon/packages/dal/pydal/objects.py", line 121, in as_dict\n    d[k] = v.as_dict()\n  File "/media/onzalo/datos/web2py/gluon/packages/dal/pydal/objects.py", line 121, in as_dict\n    d[k] = v.as_dict()\n  File "/media/onzalo/datos/web2py/gluon/packages/dal/pydal/objects.py", line 121, in as_dict\n    d[k] = v.as_dict()\n  File "/media/onzalo/datos/web2py/gluon/packages/dal/pydal/objects.py", line 121, in as_dict\n    d[k] = v.as_dict()\n  File "/media/onzalo/datos/web2py/gluon/packages/dal/pydal/objects.py", line 121, in as_dict\n    d[k] = v.as_dict()\n  File "/media/onzalo/datos/web2py/gluon/packages/dal/pydal/objects.py", line 121, in as_dict\n    d[k] = v.as_dict()\n  File "/media/onzalo/datos/web2py/gluon/packages/dal/pydal/objects.py", line 121, in as_dict\n    d[k] = v.as_dict()\n  File "/media/onzalo/datos/web2py/gluon/packages/dal/pydal/objects.py", line 121, in as_dict\n    d[k] = v.as_dict()\n  File "/media/onzalo/datos/web2py/gluon/packages/dal/pydal/objects.py", line 121, in as_dict\n    d[k] = v.as_dict()\n  File "/media/onzalo/datos/web2py/gluon/packages/dal/pydal/objects.py", line 121, in as_dict\n    d[k] = v.as_dict()\n  File "/media/onzalo/datos/web2py/gluon/packages/dal/pydal/objects.py", line 121, in as_dict\n    d[k] = v.as_dict()\n  File "/media/onzalo/datos/web2py/gluon/packages/dal/pydal/objects.py", line 121, in as_dict\n    d[k] = v.as_dict()\n  File "/media/onzalo/datos/web2py/gluon/packages/dal/pydal/objects.py", line 121, in as_dict\n    d[k] = v.as_dict()\n  File "/media/onzalo/datos/web2py/gluon/packages/dal/pydal/objects.py", line 121, in as_dict\n    d[k] = v.as_dict()\n  File "/media/onzalo/datos/web2py/gluon/packages/dal/pydal/objects.py", line 121, in as_dict\n    d[k] = v.as_dict()\n  File "/media/onzalo/datos/web2py/gluon/packages/dal/pydal/objects.py", line 121, in as_dict\n    d[k] = v.as_dict()\n  File "/media/onzalo/datos/web2py/gluon/packages/dal/pydal/objects.py", line 121, in as_dict\n    d[k] = v.as_dict()\n  File "/media/onzalo/datos/web2py/gluon/packages/dal/pydal/objects.py", line 121, in as_dict\n    d[k] = v.as_dict()\n  File "/media/onzalo/datos/web2py/gluon/packages/dal/pydal/objects.py", line 121, in as_dict\n    d[k] = v.as_dict()\n  File "/media/onzalo/datos/web2py/gluon/packages/dal/pydal/objects.py", line 121, in as_dict\n    d[k] = v.as_dict()\n  File "/media/onzalo/datos/web2py/gluon/packages/dal/pydal/objects.py", line 121, in as_dict\n    d[k] = v.as_dict()\n  File "/media/onzalo/datos/web2py/gluon/packages/dal/pydal/objects.py", line 121, in as_dict\n    d[k] = v.as_dict()\n  File "/media/onzalo/datos/web2py/gluon/packages/dal/pydal/objects.py", line 121, in as_dict\n    d[k] = v.as_dict()\n  File "/media/onzalo/datos/web2py/gluon/packages/dal/pydal/objects.py", line 121, in as_dict\n    d[k] = v.as_dict()\n  File "/media/onzalo/datos/web2py/gluon/packages/dal/pydal/objects.py", line 121, in as_dict\n    d[k] = v.as_dict()\n  File "/media/onzalo/datos/web2py/gluon/packages/dal/pydal/objects.py", line 121, in as_dict\n    d[k] = v.as_dict()\n  File "/media/onzalo/datos/web2py/gluon/packages/dal/pydal/objects.py", line 121, in as_dict\n    d[k] = v.as_dict()\n  File "/media/onzalo/datos/web2py/gluon/packages/dal/pydal/objects.py", line 121, in as_dict\n    d[k] = v.as_dict()\n  File "/media/onzalo/datos/web2py/gluon/packages/dal/pydal/objects.py", line 121, in as_dict\n    d[k] = v.as_dict()\n  File "/media/onzalo/datos/web2py/gluon/packages/dal/pydal/objects.py", line 121, in as_dict\n    d[k] = v.as_dict()\n  File "/media/onzalo/datos/web2py/gluon/packages/dal/pydal/objects.py", line 121, in as_dict\n    d[k] = v.as_dict()\n  File "/media/onzalo/datos/web2py/gluon/packages/dal/pydal/objects.py", line 121, in as_dict\n    d[k] = v.as_dict()\n  File "/media/onzalo/datos/web2py/gluon/packages/dal/pydal/objects.py", line 121, in as_dict\n    d[k] = v.as_dict()\n  File "/media/onzalo/datos/web2py/gluon/packages/dal/pydal/objects.py", line 121, in as_dict\n    d[k] = v.as_dict()\n  File "/media/onzalo/datos/web2py/gluon/packages/dal/pydal/objects.py", line 121, in as_dict\n    d[k] = v.as_dict()\n  File "/media/onzalo/datos/web2py/gluon/packages/dal/pydal/objects.py", line 121, in as_dict\n    d[k] = v.as_dict()\n  File "/media/onzalo/datos/web2py/gluon/packages/dal/pydal/objects.py", line 121, in as_dict\n    d[k] = v.as_dict()\n  File "/media/onzalo/datos/web2py/gluon/packages/dal/pydal/objects.py", line 121, in as_dict\n    d[k] = v.as_dict()\n  File "/media/onzalo/datos/web2py/gluon/packages/dal/pydal/objects.py", line 121, in as_dict\n    d[k] = v.as_dict()\n  File "/media/onzalo/datos/web2py/gluon/packages/dal/pydal/objects.py", line 121, in as_dict\n    d[k] = v.as_dict()\n  File "/media/onzalo/datos/web2py/gluon/packages/dal/pydal/objects.py", line 121, in as_dict\n    d[k] = v.as_dict()\n  File "/media/onzalo/datos/web2py/gluon/packages/dal/pydal/objects.py", line 121, in as_dict\n    d[k] = v.as_dict()\n  File "/media/onzalo/datos/web2py/gluon/packages/dal/pydal/objects.py", line 121, in as_dict\n    d[k] = v.as_dict()\n  File "/media/onzalo/datos/web2py/gluon/packages/dal/pydal/objects.py", line 121, in as_dict\n    d[k] = v.as_dict()\n  File "/media/onzalo/datos/web2py/gluon/packages/dal/pydal/objects.py", line 121, in as_dict\n    d[k] = v.as_dict()\n  File "/media/onzalo/datos/web2py/gluon/packages/dal/pydal/objects.py", line 121, in as_dict\n    d[k] = v.as_dict()\n  File "/media/onzalo/datos/web2py/gluon/packages/dal/pydal/objects.py", line 121, in as_dict\n    d[k] = v.as_dict()\n  File "/media/onzalo/datos/web2py/gluon/packages/dal/pydal/objects.py", line 121, in as_dict\n    d[k] = v.as_dict()\n  File "/media/onzalo/datos/web2py/gluon/packages/dal/pydal/objects.py", line 121, in as_dict\n    d[k] = v.as_dict()\n  File "/media/onzalo/datos/web2py/gluon/packages/dal/pydal/objects.py", line 121, in as_dict\n    d[k] = v.as_dict()\n  File "/media/onzalo/datos/web2py/gluon/packages/dal/pydal/objects.py", line 121, in as_dict\n    d[k] = v.as_dict()\n  File "/media/onzalo/datos/web2py/gluon/packages/dal/pydal/objects.py", line 121, in as_dict\n    d[k] = v.as_dict()\n  File "/media/onzalo/datos/web2py/gluon/packages/dal/pydal/objects.py", line 121, in as_dict\n    d[k] = v.as_dict()\n  File "/media/onzalo/datos/web2py/gluon/packages/dal/pydal/objects.py", line 121, in as_dict\n    d[k] = v.as_dict()\n  File "/media/onzalo/datos/web2py/gluon/packages/dal/pydal/objects.py", line 121, in as_dict\n    d[k] = v.as_dict()\n  File "/media/onzalo/datos/web2py/gluon/packages/dal/pydal/objects.py", line 121, in as_dict\n    d[k] = v.as_dict()\n  File "/media/onzalo/datos/web2py/gluon/packages/dal/pydal/objects.py", line 121, in as_dict\n    d[k] = v.as_dict()\n  File "/media/onzalo/datos/web2py/gluon/packages/dal/pydal/objects.py", line 121, in as_dict\n    d[k] = v.as_dict()\n  File "/media/onzalo/datos/web2py/gluon/packages/dal/pydal/objects.py", line 121, in as_dict\n    d[k] = v.as_dict()\n  File "/media/onzalo/datos/web2py/gluon/packages/dal/pydal/objects.py", line 121, in as_dict\n    d[k] = v.as_dict()\n  File "/media/onzalo/datos/web2py/gluon/packages/dal/pydal/objects.py", line 121, in as_dict\n    d[k] = v.as_dict()\n  File "/media/onzalo/datos/web2py/gluon/packages/dal/pydal/objects.py", line 121, in as_dict\n    d[k] = v.as_dict()\n  File "/media/onzalo/datos/web2py/gluon/packages/dal/pydal/objects.py", line 121, in as_dict\n    d[k] = v.as_dict()\n  File "/media/onzalo/datos/web2py/gluon/packages/dal/pydal/objects.py", line 121, in as_dict\n    d[k] = v.as_dict()\n  File "/media/onzalo/datos/web2py/gluon/packages/dal/pydal/objects.py", line 121, in as_dict\n    d[k] = v.as_dict()\n  File "/media/onzalo/datos/web2py/gluon/packages/dal/pydal/objects.py", line 121, in as_dict\n    d[k] = v.as_dict()\n  File "/media/onzalo/datos/web2py/gluon/packages/dal/pydal/objects.py", line 121, in as_dict\n    d[k] = v.as_dict()\n  File "/media/onzalo/datos/web2py/gluon/packages/dal/pydal/objects.py", line 121, in as_dict\n    d[k] = v.as_dict()\n  File "/media/onzalo/datos/web2py/gluon/packages/dal/pydal/objects.py", line 121, in as_dict\n    d[k] = v.as_dict()\n  File "/media/onzalo/datos/web2py/gluon/packages/dal/pydal/objects.py", line 121, in as_dict\n    d[k] = v.as_dict()\n  File "/media/onzalo/datos/web2py/gluon/packages/dal/pydal/objects.py", line 121, in as_dict\n    d[k] = v.as_dict()\n  File "/media/onzalo/datos/web2py/gluon/packages/dal/pydal/objects.py", line 121, in as_dict\n    d[k] = v.as_dict()\n  File "/media/onzalo/datos/web2py/gluon/packages/dal/pydal/objects.py", line 121, in as_dict\n    d[k] = v.as_dict()\n  File "/media/onzalo/datos/web2py/gluon/packages/dal/pydal/objects.py", line 121, in as_dict\n    d[k] = v.as_dict()\n  File "/media/onzalo/datos/web2py/gluon/packages/dal/pydal/objects.py", line 121, in as_dict\n    d[k] = v.as_dict()\n  File "/media/onzalo/datos/web2py/gluon/packages/dal/pydal/objects.py", line 121, in as_dict\n    d[k] = v.as_dict()\n  File "/media/onzalo/datos/web2py/gluon/packages/dal/pydal/objects.py", line 121, in as_dict\n    d[k] = v.as_dict()\n  File "/media/onzalo/datos/web2py/gluon/packages/dal/pydal/objects.py", line 121, in as_dict\n    d[k] = v.as_dict()\n  File "/media/onzalo/datos/web2py/gluon/packages/dal/pydal/objects.py", line 121, in as_dict\n    d[k] = v.as_dict()\n  File "/media/onzalo/datos/web2py/gluon/packages/dal/pydal/objects.py", line 121, in as_dict\n    d[k] = v.as_dict()\n  File "/media/onzalo/datos/web2py/gluon/packages/dal/pydal/objects.py", line 121, in as_dict\n    d[k] = v.as_dict()\n  File "/media/onzalo/datos/web2py/gluon/packages/dal/pydal/objects.py", line 121, in as_dict\n    d[k] = v.as_dict()\n  File "/media/onzalo/datos/web2py/gluon/packages/dal/pydal/objects.py", line 121, in as_dict\n    d[k] = v.as_dict()\n  File "/media/onzalo/datos/web2py/gluon/packages/dal/pydal/objects.py", line 121, in as_dict\n    d[k] = v.as_dict()\n  File "/media/onzalo/datos/web2py/gluon/packages/dal/pydal/objects.py", line 121, in as_dict\n    d[k] = v.as_dict()\n  File "/media/onzalo/datos/web2py/gluon/packages/dal/pydal/objects.py", line 121, in as_dict\n    d[k] = v.as_dict()\n  File "/media/onzalo/datos/web2py/gluon/packages/dal/pydal/objects.py", line 121, in as_dict\n    d[k] = v.as_dict()\n  File "/media/onzalo/datos/web2py/gluon/packages/dal/pydal/objects.py", line 121, in as_dict\n    d[k] = v.as_dict()\n  File "/media/onzalo/datos/web2py/gluon/packages/dal/pydal/objects.py", line 121, in as_dict\n    d[k] = v.as_dict()\n  File "/media/onzalo/datos/web2py/gluon/packages/dal/pydal/objects.py", line 121, in as_dict\n    d[k] = v.as_dict()\n  File "/media/onzalo/datos/web2py/gluon/packages/dal/pydal/objects.py", line 121, in as_dict\n    d[k] = v.as_dict()\n  File "/media/onzalo/datos/web2py/gluon/packages/dal/pydal/objects.py", line 121, in as_dict\n    d[k] = v.as_dict()\n  File "/media/onzalo/datos/web2py/gluon/packages/dal/pydal/objects.py", line 121, in as_dict\n    d[k] = v.as_dict()\n  File "/media/onzalo/datos/web2py/gluon/packages/dal/pydal/objects.py", line 121, in as_dict\n    d[k] = v.as_dict()\n  File "/media/onzalo/datos/web2py/gluon/packages/dal/pydal/objects.py", line 121, in as_dict\n    d[k] = v.as_dict()\n  File "/media/onzalo/datos/web2py/gluon/packages/dal/pydal/objects.py", line 121, in as_dict\n    d[k] = v.as_dict()\n  File "/media/onzalo/datos/web2py/gluon/packages/dal/pydal/objects.py", line 121, in as_dict\n    d[k] = v.as_dict()\n  File "/media/onzalo/datos/web2py/gluon/packages/dal/pydal/objects.py", line 121, in as_dict\n    d[k] = v.as_dict()\n  File "/media/onzalo/datos/web2py/gluon/packages/dal/pydal/objects.py", line 121, in as_dict\n    d[k] = v.as_dict()\n  File "/media/onzalo/datos/web2py/gluon/packages/dal/pydal/objects.py", line 121, in as_dict\n    d[k] = v.as_dict()\n  File "/media/onzalo/datos/web2py/gluon/packages/dal/pydal/objects.py", line 121, in as_dict\n    d[k] = v.as_dict()\n  File "/media/onzalo/datos/web2py/gluon/packages/dal/pydal/objects.py", line 121, in as_dict\n    d[k] = v.as_dict()\n  File "/media/onzalo/datos/web2py/gluon/packages/dal/pydal/objects.py", line 121, in as_dict\n    d[k] = v.as_dict()\n  File "/media/onzalo/datos/web2py/gluon/packages/dal/pydal/objects.py", line 121, in as_dict\n    d[k] = v.as_dict()\n  File "/media/onzalo/datos/web2py/gluon/packages/dal/pydal/objects.py", line 121, in as_dict\n    d[k] = v.as_dict()\n  File "/media/onzalo/datos/web2py/gluon/packages/dal/pydal/objects.py", line 121, in as_dict\n    d[k] = v.as_dict()\n  File "/media/onzalo/datos/web2py/gluon/packages/dal/pydal/objects.py", line 121, in as_dict\n    d[k] = v.as_dict()\n  File "/media/onzalo/datos/web2py/gluon/packages/dal/pydal/objects.py", line 121, in as_dict\n    d[k] = v.as_dict()\n  File "/media/onzalo/datos/web2py/gluon/packages/dal/pydal/objects.py", line 121, in as_dict\n    d[k] = v.as_dict()\n  File "/media/onzalo/datos/web2py/gluon/packages/dal/pydal/objects.py", line 121, in as_dict\n    d[k] = v.as_dict()\n  File "/media/onzalo/datos/web2py/gluon/packages/dal/pydal/objects.py", line 121, in as_dict\n    d[k] = v.as_dict()\n  File "/media/onzalo/datos/web2py/gluon/packages/dal/pydal/objects.py", line 121, in as_dict\n    d[k] = v.as_dict()\n  File "/media/onzalo/datos/web2py/gluon/packages/dal/pydal/objects.py", line 121, in as_dict\n    d[k] = v.as_dict()\n  File "/media/onzalo/datos/web2py/gluon/packages/dal/pydal/objects.py", line 121, in as_dict\n    d[k] = v.as_dict()\n  File "/media/onzalo/datos/web2py/gluon/packages/dal/pydal/objects.py", line 121, in as_dict\n    d[k] = v.as_dict()\n  File "/media/onzalo/datos/web2py/gluon/packages/dal/pydal/objects.py", line 121, in as_dict\n    d[k] = v.as_dict()\n  File "/media/onzalo/datos/web2py/gluon/packages/dal/pydal/objects.py", line 121, in as_dict\n    d[k] = v.as_dict()\n  File "/media/onzalo/datos/web2py/gluon/packages/dal/pydal/objects.py", line 121, in as_dict\n    d[k] = v.as_dict()\n  File "/media/onzalo/datos/web2py/gluon/packages/dal/pydal/objects.py", line 121, in as_dict\n    d[k] = v.as_dict()\n  File "/media/onzalo/datos/web2py/gluon/packages/dal/pydal/objects.py", line 121, in as_dict\n    d[k] = v.as_dict()\n  File "/media/onzalo/datos/web2py/gluon/packages/dal/pydal/objects.py", line 121, in as_dict\n    d[k] = v.as_dict()\n  File "/media/onzalo/datos/web2py/gluon/packages/dal/pydal/objects.py", line 121, in as_dict\n    d[k] = v.as_dict()\n  File "/media/onzalo/datos/web2py/gluon/packages/dal/pydal/objects.py", line 121, in as_dict\n    d[k] = v.as_dict()\n  File "/media/onzalo/datos/web2py/gluon/packages/dal/pydal/objects.py", line 121, in as_dict\n    d[k] = v.as_dict()\n  File "/media/onzalo/datos/web2py/gluon/packages/dal/pydal/objects.py", line 121, in as_dict\n    d[k] = v.as_dict()\n  File "/media/onzalo/datos/web2py/gluon/packages/dal/pydal/objects.py", line 121, in as_dict\n    d[k] = v.as_dict()\n  File "/media/onzalo/datos/web2py/gluon/packages/dal/pydal/objects.py", line 121, in as_dict\n    d[k] = v.as_dict()\n  File "/media/onzalo/datos/web2py/gluon/packages/dal/pydal/objects.py", line 121, in as_dict\n    d[k] = v.as_dict()\n  File "/media/onzalo/datos/web2py/gluon/packages/dal/pydal/objects.py", line 121, in as_dict\n    d[k] = v.as_dict()\n  File "/media/onzalo/datos/web2py/gluon/packages/dal/pydal/objects.py", line 121, in as_dict\n    d[k] = v.as_dict()\n  File "/media/onzalo/datos/web2py/gluon/packages/dal/pydal/objects.py", line 121, in as_dict\n    d[k] = v.as_dict()\n  File "/media/onzalo/datos/web2py/gluon/packages/dal/pydal/objects.py", line 121, in as_dict\n    d[k] = v.as_dict()\n  File "/media/onzalo/datos/web2py/gluon/packages/dal/pydal/objects.py", line 121, in as_dict\n    d[k] = v.as_dict()\n  File "/media/onzalo/datos/web2py/gluon/packages/dal/pydal/objects.py", line 121, in as_dict\n    d[k] = v.as_dict()\n  File "/media/onzalo/datos/web2py/gluon/packages/dal/pydal/objects.py", line 121, in as_dict\n    d[k] = v.as_dict()\n  File "/media/onzalo/datos/web2py/gluon/packages/dal/pydal/objects.py", line 121, in as_dict\n    d[k] = v.as_dict()\n  File "/media/onzalo/datos/web2py/gluon/packages/dal/pydal/objects.py", line 121, in as_dict\n    d[k] = v.as_dict()\n  File "/media/onzalo/datos/web2py/gluon/packages/dal/pydal/objects.py", line 121, in as_dict\n    d[k] = v.as_dict()\n  File "/media/onzalo/datos/web2py/gluon/packages/dal/pydal/objects.py", line 121, in as_dict\n    d[k] = v.as_dict()\n  File "/media/onzalo/datos/web2py/gluon/packages/dal/pydal/objects.py", line 121, in as_dict\n    d[k] = v.as_dict()\n  File "/media/onzalo/datos/web2py/gluon/packages/dal/pydal/objects.py", line 121, in as_dict\n    d[k] = v.as_dict()\n  File "/media/onzalo/datos/web2py/gluon/packages/dal/pydal/objects.py", line 121, in as_dict\n    d[k] = v.as_dict()\n  File "/media/onzalo/datos/web2py/gluon/packages/dal/pydal/objects.py", line 121, in as_dict\n    d[k] = v.as_dict()\n  File "/media/onzalo/datos/web2py/gluon/packages/dal/pydal/objects.py", line 121, in as_dict\n    d[k] = v.as_dict()\n  File "/media/onzalo/datos/web2py/gluon/packages/dal/pydal/objects.py", line 121, in as_dict\n    d[k] = v.as_dict()\n  File "/media/onzalo/datos/web2py/gluon/packages/dal/pydal/objects.py", line 121, in as_dict\n    d[k] = v.as_dict()\n  File "/media/onzalo/datos/web2py/gluon/packages/dal/pydal/objects.py", line 121, in as_dict\n    d[k] = v.as_dict()\n  File "/media/onzalo/datos/web2py/gluon/packages/dal/pydal/objects.py", line 121, in as_dict\n    d[k] = v.as_dict()\n  File "/media/onzalo/datos/web2py/gluon/packages/dal/pydal/objects.py", line 121, in as_dict\n    d[k] = v.as_dict()\n  File "/media/onzalo/datos/web2py/gluon/packages/dal/pydal/objects.py", line 121, in as_dict\n    d[k] = v.as_dict()\n  File "/media/onzalo/datos/web2py/gluon/packages/dal/pydal/objects.py", line 121, in as_dict\n    d[k] = v.as_dict()\n  File "/media/onzalo/datos/web2py/gluon/packages/dal/pydal/objects.py", line 121, in as_dict\n    d[k] = v.as_dict()\n  File "/media/onzalo/datos/web2py/gluon/packages/dal/pydal/objects.py", line 121, in as_dict\n    d[k] = v.as_dict()\n  File "/media/onzalo/datos/web2py/gluon/packages/dal/pydal/objects.py", line 121, in as_dict\n    d[k] = v.as_dict()\n  File "/media/onzalo/datos/web2py/gluon/packages/dal/pydal/objects.py", line 121, in as_dict\n    d[k] = v.as_dict()\n  File "/media/onzalo/datos/web2py/gluon/packages/dal/pydal/objects.py", line 121, in as_dict\n    d[k] = v.as_dict()\n  File "/media/onzalo/datos/web2py/gluon/packages/dal/pydal/objects.py", line 121, in as_dict\n    d[k] = v.as_dict()\n  File "/media/onzalo/datos/web2py/gluon/packages/dal/pydal/objects.py", line 121, in as_dict\n    d[k] = v.as_dict()\n  File "/media/onzalo/datos/web2py/gluon/packages/dal/pydal/objects.py", line 121, in as_dict\n    d[k] = v.as_dict()\n  File "/media/onzalo/datos/web2py/gluon/packages/dal/pydal/objects.py", line 121, in as_dict\n    d[k] = v.as_dict()\n  File "/media/onzalo/datos/web2py/gluon/packages/dal/pydal/objects.py", line 121, in as_dict\n    d[k] = v.as_dict()\n  File "/media/onzalo/datos/web2py/gluon/packages/dal/pydal/objects.py", line 121, in as_dict\n    d[k] = v.as_dict()\n  File "/media/onzalo/datos/web2py/gluon/packages/dal/pydal/objects.py", line 121, in as_dict\n    d[k] = v.as_dict()\n  File "/media/onzalo/datos/web2py/gluon/packages/dal/pydal/objects.py", line 121, in as_dict\n    d[k] = v.as_dict()\n  File "/media/onzalo/datos/web2py/gluon/packages/dal/pydal/objects.py", line 121, in as_dict\n    d[k] = v.as_dict()\n  File "/media/onzalo/datos/web2py/gluon/packages/dal/pydal/objects.py", line 121, in as_dict\n    d[k] = v.as_dict()\n  File "/media/onzalo/datos/web2py/gluon/packages/dal/pydal/objects.py", line 121, in as_dict\n    d[k] = v.as_dict()\n  File "/media/onzalo/datos/web2py/gluon/packages/dal/pydal/objects.py", line 121, in as_dict\n    d[k] = v.as_dict()\n  File "/media/onzalo/datos/web2py/gluon/packages/dal/pydal/objects.py", line 121, in as_dict\n    d[k] = v.as_dict()\n  File "/media/onzalo/datos/web2py/gluon/packages/dal/pydal/objects.py", line 121, in as_dict\n    d[k] = v.as_dict()\n  File "/media/onzalo/datos/web2py/gluon/packages/dal/pydal/objects.py", line 121, in as_dict\n    d[k] = v.as_dict()\n  File "/media/onzalo/datos/web2py/gluon/packages/dal/pydal/objects.py", line 121, in as_dict\n    d[k] = v.as_dict()\n  File "/media/onzalo/datos/web2py/gluon/packages/dal/pydal/objects.py", line 121, in as_dict\n    d[k] = v.as_dict()\n  File "/media/onzalo/datos/web2py/gluon/packages/dal/pydal/objects.py", line 121, in as_dict\n    d[k] = v.as_dict()\n  File "/media/onzalo/datos/web2py/gluon/packages/dal/pydal/objects.py", line 121, in as_dict\n    d[k] = v.as_dict()\n  File "/media/onzalo/datos/web2py/gluon/packages/dal/pydal/objects.py", line 121, in as_dict\n    d[k] = v.as_dict()\n  File "/media/onzalo/datos/web2py/gluon/packages/dal/pydal/objects.py", line 121, in as_dict\n    d[k] = v.as_dict()\n  File "/media/onzalo/datos/web2py/gluon/packages/dal/pydal/objects.py", line 121, in as_dict\n    d[k] = v.as_dict()\n  File "/media/onzalo/datos/web2py/gluon/packages/dal/pydal/objects.py", line 121, in as_dict\n    d[k] = v.as_dict()\n  File "/media/onzalo/datos/web2py/gluon/packages/dal/pydal/objects.py", line 121, in as_dict\n    d[k] = v.as_dict()\n  File "/media/onzalo/datos/web2py/gluon/packages/dal/pydal/objects.py", line 121, in as_dict\n    d[k] = v.as_dict()\n  File "/media/onzalo/datos/web2py/gluon/packages/dal/pydal/objects.py", line 121, in as_dict\n    d[k] = v.as_dict()\n  File "/media/onzalo/datos/web2py/gluon/packages/dal/pydal/objects.py", line 121, in as_dict\n    d[k] = v.as_dict()\n  File "/media/onzalo/datos/web2py/gluon/packages/dal/pydal/objects.py", line 121, in as_dict\n    d[k] = v.as_dict()\n  File "/media/onzalo/datos/web2py/gluon/packages/dal/pydal/objects.py", line 121, in as_dict\n    d[k] = v.as_dict()\n  File "/media/onzalo/datos/web2py/gluon/packages/dal/pydal/objects.py", line 121, in as_dict\n    d[k] = v.as_dict()\n  File "/media/onzalo/datos/web2py/gluon/packages/dal/pydal/objects.py", line 121, in as_dict\n    d[k] = v.as_dict()\n  File "/media/onzalo/datos/web2py/gluon/packages/dal/pydal/objects.py", line 121, in as_dict\n    d[k] = v.as_dict()\n  File "/media/onzalo/datos/web2py/gluon/packages/dal/pydal/objects.py", line 121, in as_dict\n    d[k] = v.as_dict()\n  File "/media/onzalo/datos/web2py/gluon/packages/dal/pydal/objects.py", line 121, in as_dict\n    d[k] = v.as_dict()\n  File "/media/onzalo/datos/web2py/gluon/packages/dal/pydal/objects.py", line 121, in as_dict\n    d[k] = v.as_dict()\n  File "/media/onzalo/datos/web2py/gluon/packages/dal/pydal/objects.py", line 121, in as_dict\n    d[k] = v.as_dict()\n  File "/media/onzalo/datos/web2py/gluon/packages/dal/pydal/objects.py", line 121, in as_dict\n    d[k] = v.as_dict()\n  File "/media/onzalo/datos/web2py/gluon/packages/dal/pydal/objects.py", line 121, in as_dict\n    d[k] = v.as_dict()\n  File "/media/onzalo/datos/web2py/gluon/packages/dal/pydal/objects.py", line 121, in as_dict\n    d[k] = v.as_dict()\n  File "/media/onzalo/datos/web2py/gluon/packages/dal/pydal/objects.py", line 121, in as_dict\n    d[k] = v.as_dict()\n  File "/media/onzalo/datos/web2py/gluon/packages/dal/pydal/objects.py", line 121, in as_dict\n    d[k] = v.as_dict()\n  File "/media/onzalo/datos/web2py/gluon/packages/dal/pydal/objects.py", line 121, in as_dict\n    d[k] = v.as_dict()\n  File "/media/onzalo/datos/web2py/gluon/packages/dal/pydal/objects.py", line 121, in as_dict\n    d[k] = v.as_dict()\n  File "/media/onzalo/datos/web2py/gluon/packages/dal/pydal/objects.py", line 121, in as_dict\n    d[k] = v.as_dict()\n  File "/media/onzalo/datos/web2py/gluon/packages/dal/pydal/objects.py", line 121, in as_dict\n    d[k] = v.as_dict()\n  File "/media/onzalo/datos/web2py/gluon/packages/dal/pydal/objects.py", line 121, in as_dict\n    d[k] = v.as_dict()\n  File "/media/onzalo/datos/web2py/gluon/packages/dal/pydal/objects.py", line 121, in as_dict\n    d[k] = v.as_dict()\n  File "/media/onzalo/datos/web2py/gluon/packages/dal/pydal/objects.py", line 121, in as_dict\n    d[k] = v.as_dict()\n  File "/media/onzalo/datos/web2py/gluon/packages/dal/pydal/objects.py", line 121, in as_dict\n    d[k] = v.as_dict()\n  File "/media/onzalo/datos/web2py/gluon/packages/dal/pydal/objects.py", line 121, in as_dict\n    d[k] = v.as_dict()\n  File "/media/onzalo/datos/web2py/gluon/packages/dal/pydal/objects.py", line 121, in as_dict\n    d[k] = v.as_dict()\n  File "/media/onzalo/datos/web2py/gluon/packages/dal/pydal/objects.py", line 121, in as_dict\n    d[k] = v.as_dict()\n  File "/media/onzalo/datos/web2py/gluon/packages/dal/pydal/objects.py", line 121, in as_dict\n    d[k] = v.as_dict()\n  File "/media/onzalo/datos/web2py/gluon/packages/dal/pydal/objects.py", line 121, in as_dict\n    d[k] = v.as_dict()\n  File "/media/onzalo/datos/web2py/gluon/packages/dal/pydal/objects.py", line 121, in as_dict\n    d[k] = v.as_dict()\n  File "/media/onzalo/datos/web2py/gluon/packages/dal/pydal/objects.py", line 121, in as_dict\n    d[k] = v.as_dict()\n  File "/media/onzalo/datos/web2py/gluon/packages/dal/pydal/objects.py", line 121, in as_dict\n    d[k] = v.as_dict()\n  File "/media/onzalo/datos/web2py/gluon/packages/dal/pydal/objects.py", line 121, in as_dict\n    d[k] = v.as_dict()\n  File "/media/onzalo/datos/web2py/gluon/packages/dal/pydal/objects.py", line 121, in as_dict\n    d[k] = v.as_dict()\n  File "/media/onzalo/datos/web2py/gluon/packages/dal/pydal/objects.py", line 121, in as_dict\n    d[k] = v.as_dict()\n  File "/media/onzalo/datos/web2py/gluon/packages/dal/pydal/objects.py", line 121, in as_dict\n    d[k] = v.as_dict()\n  File "/media/onzalo/datos/web2py/gluon/packages/dal/pydal/objects.py", line 121, in as_dict\n    d[k] = v.as_dict()\n  File "/media/onzalo/datos/web2py/gluon/packages/dal/pydal/objects.py", line 121, in as_dict\n    d[k] = v.as_dict()\n  File "/media/onzalo/datos/web2py/gluon/packages/dal/pydal/objects.py", line 121, in as_dict\n    d[k] = v.as_dict()\n  File "/media/onzalo/datos/web2py/gluon/packages/dal/pydal/objects.py", line 121, in as_dict\n    d[k] = v.as_dict()\n  File "/media/onzalo/datos/web2py/gluon/packages/dal/pydal/objects.py", line 121, in as_dict\n    d[k] = v.as_dict()\n  File "/media/onzalo/datos/web2py/gluon/packages/dal/pydal/objects.py", line 121, in as_dict\n    d[k] = v.as_dict()\n  File "/media/onzalo/datos/web2py/gluon/packages/dal/pydal/objects.py", line 121, in as_dict\n    d[k] = v.as_dict()\n  File "/media/onzalo/datos/web2py/gluon/packages/dal/pydal/objects.py", line 121, in as_dict\n    d[k] = v.as_dict()\n  File "/media/onzalo/datos/web2py/gluon/packages/dal/pydal/objects.py", line 121, in as_dict\n    d[k] = v.as_dict()\n  File "/media/onzalo/datos/web2py/gluon/packages/dal/pydal/objects.py", line 121, in as_dict\n    d[k] = v.as_dict()\n  File "/media/onzalo/datos/web2py/gluon/packages/dal/pydal/objects.py", line 121, in as_dict\n    d[k] = v.as_dict()\n  File "/media/onzalo/datos/web2py/gluon/packages/dal/pydal/objects.py", line 121, in as_dict\n    d[k] = v.as_dict()\n  File "/media/onzalo/datos/web2py/gluon/packages/dal/pydal/objects.py", line 121, in as_dict\n    d[k] = v.as_dict()\n  File "/media/onzalo/datos/web2py/gluon/packages/dal/pydal/objects.py", line 121, in as_dict\n    d[k] = v.as_dict()\n  File "/media/onzalo/datos/web2py/gluon/packages/dal/pydal/objects.py", line 121, in as_dict\n    d[k] = v.as_dict()\n  File "/media/onzalo/datos/web2py/gluon/packages/dal/pydal/objects.py", line 121, in as_dict\n    d[k] = v.as_dict()\n  File "/media/onzalo/datos/web2py/gluon/packages/dal/pydal/objects.py", line 121, in as_dict\n    d[k] = v.as_dict()\n  File "/media/onzalo/datos/web2py/gluon/packages/dal/pydal/objects.py", line 121, in as_dict\n    d[k] = v.as_dict()\n  File "/media/onzalo/datos/web2py/gluon/packages/dal/pydal/objects.py", line 121, in as_dict\n    d[k] = v.as_dict()\n  File "/media/onzalo/datos/web2py/gluon/packages/dal/pydal/objects.py", line 121, in as_dict\n    d[k] = v.as_dict()\n  File "/media/onzalo/datos/web2py/gluon/packages/dal/pydal/objects.py", line 121, in as_dict\n    d[k] = v.as_dict()\n  File "/media/onzalo/datos/web2py/gluon/packages/dal/pydal/objects.py", line 121, in as_dict\n    d[k] = v.as_dict()\n  File "/media/onzalo/datos/web2py/gluon/packages/dal/pydal/objects.py", line 121, in as_dict\n    d[k] = v.as_dict()\n  File "/media/onzalo/datos/web2py/gluon/packages/dal/pydal/objects.py", line 121, in as_dict\n    d[k] = v.as_dict()\n  File "/media/onzalo/datos/web2py/gluon/packages/dal/pydal/objects.py", line 121, in as_dict\n    d[k] = v.as_dict()\n  File "/media/onzalo/datos/web2py/gluon/packages/dal/pydal/objects.py", line 121, in as_dict\n    d[k] = v.as_dict()\n  File "/media/onzalo/datos/web2py/gluon/packages/dal/pydal/objects.py", line 121, in as_dict\n    d[k] = v.as_dict()\n  File "/media/onzalo/datos/web2py/gluon/packages/dal/pydal/objects.py", line 121, in as_dict\n    d[k] = v.as_dict()\n  File "/media/onzalo/datos/web2py/gluon/packages/dal/pydal/objects.py", line 121, in as_dict\n    d[k] = v.as_dict()\n  File "/media/onzalo/datos/web2py/gluon/packages/dal/pydal/objects.py", line 121, in as_dict\n    d[k] = v.as_dict()\n  File "/media/onzalo/datos/web2py/gluon/packages/dal/pydal/objects.py", line 121, in as_dict\n    d[k] = v.as_dict()\n  File "/media/onzalo/datos/web2py/gluon/packages/dal/pydal/objects.py", line 121, in as_dict\n    d[k] = v.as_dict()\n  File "/media/onzalo/datos/web2py/gluon/packages/dal/pydal/objects.py", line 121, in as_dict\n    d[k] = v.as_dict()\n  File "/media/onzalo/datos/web2py/gluon/packages/dal/pydal/objects.py", line 121, in as_dict\n    d[k] = v.as_dict()\n  File "/media/onzalo/datos/web2py/gluon/packages/dal/pydal/objects.py", line 121, in as_dict\n    d[k] = v.as_dict()\n  File "/media/onzalo/datos/web2py/gluon/packages/dal/pydal/objects.py", line 121, in as_dict\n    d[k] = v.as_dict()\n  File "/media/onzalo/datos/web2py/gluon/packages/dal/pydal/objects.py", line 121, in as_dict\n    d[k] = v.as_dict()\n  File "/media/onzalo/datos/web2py/gluon/packages/dal/pydal/objects.py", line 121, in as_dict\n    d[k] = v.as_dict()\n  File "/media/onzalo/datos/web2py/gluon/packages/dal/pydal/objects.py", line 121, in as_dict\n    d[k] = v.as_dict()\n  File "/media/onzalo/datos/web2py/gluon/packages/dal/pydal/objects.py", line 121, in as_dict\n    d[k] = v.as_dict()\n  File "/media/onzalo/datos/web2py/gluon/packages/dal/pydal/objects.py", line 121, in as_dict\n    d[k] = v.as_dict()\n  File "/media/onzalo/datos/web2py/gluon/packages/dal/pydal/objects.py", line 121, in as_dict\n    d[k] = v.as_dict()\n  File "/media/onzalo/datos/web2py/gluon/packages/dal/pydal/objects.py", line 121, in as_dict\n    d[k] = v.as_dict()\n  File "/media/onzalo/datos/web2py/gluon/packages/dal/pydal/objects.py", line 121, in as_dict\n    d[k] = v.as_dict()\n  File "/media/onzalo/datos/web2py/gluon/packages/dal/pydal/objects.py", line 121, in as_dict\n    d[k] = v.as_dict()\n  File "/media/onzalo/datos/web2py/gluon/packages/dal/pydal/objects.py", line 121, in as_dict\n    d[k] = v.as_dict()\n  File "/media/onzalo/datos/web2py/gluon/packages/dal/pydal/objects.py", line 121, in as_dict\n    d[k] = v.as_dict()\n  File "/media/onzalo/datos/web2py/gluon/packages/dal/pydal/objects.py", line 121, in as_dict\n    d[k] = v.as_dict()\n  File "/media/onzalo/datos/web2py/gluon/packages/dal/pydal/objects.py", line 121, in as_dict\n    d[k] = v.as_dict()\n  File "/media/onzalo/datos/web2py/gluon/packages/dal/pydal/objects.py", line 121, in as_dict\n    d[k] = v.as_dict()\n  File "/media/onzalo/datos/web2py/gluon/packages/dal/pydal/objects.py", line 121, in as_dict\n    d[k] = v.as_dict()\n  File "/media/onzalo/datos/web2py/gluon/packages/dal/pydal/objects.py", line 121, in as_dict\n    d[k] = v.as_dict()\n  File "/media/onzalo/datos/web2py/gluon/packages/dal/pydal/objects.py", line 121, in as_dict\n    d[k] = v.as_dict()\n  File "/media/onzalo/datos/web2py/gluon/packages/dal/pydal/objects.py", line 121, in as_dict\n    d[k] = v.as_dict()\n  File "/media/onzalo/datos/web2py/gluon/packages/dal/pydal/objects.py", line 121, in as_dict\n    d[k] = v.as_dict()\n  File "/media/onzalo/datos/web2py/gluon/packages/dal/pydal/objects.py", line 121, in as_dict\n    d[k] = v.as_dict()\n  File "/media/onzalo/datos/web2py/gluon/packages/dal/pydal/objects.py", line 121, in as_dict\n    d[k] = v.as_dict()\n  File "/media/onzalo/datos/web2py/gluon/packages/dal/pydal/objects.py", line 121, in as_dict\n    d[k] = v.as_dict()\n  File "/media/onzalo/datos/web2py/gluon/packages/dal/pydal/objects.py", line 121, in as_dict\n    d[k] = v.as_dict()\n  File "/media/onzalo/datos/web2py/gluon/packages/dal/pydal/objects.py", line 121, in as_dict\n    d[k] = v.as_dict()\n  File "/media/onzalo/datos/web2py/gluon/packages/dal/pydal/objects.py", line 121, in as_dict\n    d[k] = v.as_dict()\n  File "/media/onzalo/datos/web2py/gluon/packages/dal/pydal/objects.py", line 121, in as_dict\n    d[k] = v.as_dict()\n  File "/media/onzalo/datos/web2py/gluon/packages/dal/pydal/objects.py", line 121, in as_dict\n    d[k] = v.as_dict()\n  File "/media/onzalo/datos/web2py/gluon/packages/dal/pydal/objects.py", line 121, in as_dict\n    d[k] = v.as_dict()\n  File "/media/onzalo/datos/web2py/gluon/packages/dal/pydal/objects.py", line 121, in as_dict\n    d[k] = v.as_dict()\n  File "/media/onzalo/datos/web2py/gluon/packages/dal/pydal/objects.py", line 121, in as_dict\n    d[k] = v.as_dict()\n  File "/media/onzalo/datos/web2py/gluon/packages/dal/pydal/objects.py", line 121, in as_dict\n    d[k] = v.as_dict()\n  File "/media/onzalo/datos/web2py/gluon/packages/dal/pydal/objects.py", line 121, in as_dict\n    d[k] = v.as_dict()\n  File "/media/onzalo/datos/web2py/gluon/packages/dal/pydal/objects.py", line 121, in as_dict\n    d[k] = v.as_dict()\n  File "/media/onzalo/datos/web2py/gluon/packages/dal/pydal/objects.py", line 121, in as_dict\n    d[k] = v.as_dict()\n  File "/media/onzalo/datos/web2py/gluon/packages/dal/pydal/objects.py", line 121, in as_dict\n    d[k] = v.as_dict()\n  File "/media/onzalo/datos/web2py/gluon/packages/dal/pydal/objects.py", line 121, in as_dict\n    d[k] = v.as_dict()\n  File "/media/onzalo/datos/web2py/gluon/packages/dal/pydal/objects.py", line 121, in as_dict\n    d[k] = v.as_dict()\n  File "/media/onzalo/datos/web2py/gluon/packages/dal/pydal/objects.py", line 121, in as_dict\n    d[k] = v.as_dict()\n  File "/media/onzalo/datos/web2py/gluon/packages/dal/pydal/objects.py", line 121, in as_dict\n    d[k] = v.as_dict()\n  File "/media/onzalo/datos/web2py/gluon/packages/dal/pydal/objects.py", line 121, in as_dict\n    d[k] = v.as_dict()\n  File "/media/onzalo/datos/web2py/gluon/packages/dal/pydal/objects.py", line 121, in as_dict\n    d[k] = v.as_dict()\n  File "/media/onzalo/datos/web2py/gluon/packages/dal/pydal/objects.py", line 121, in as_dict\n    d[k] = v.as_dict()\n  File "/media/onzalo/datos/web2py/gluon/packages/dal/pydal/objects.py", line 121, in as_dict\n    d[k] = v.as_dict()\n  File "/media/onzalo/datos/web2py/gluon/packages/dal/pydal/objects.py", line 121, in as_dict\n    d[k] = v.as_dict()\n  File "/media/onzalo/datos/web2py/gluon/packages/dal/pydal/objects.py", line 121, in as_dict\n    d[k] = v.as_dict()\n  File "/media/onzalo/datos/web2py/gluon/packages/dal/pydal/objects.py", line 121, in as_dict\n    d[k] = v.as_dict()\n  File "/media/onzalo/datos/web2py/gluon/packages/dal/pydal/objects.py", line 121, in as_dict\n    d[k] = v.as_dict()\n  File "/media/onzalo/datos/web2py/gluon/packages/dal/pydal/objects.py", line 121, in as_dict\n    d[k] = v.as_dict()\n  File "/media/onzalo/datos/web2py/gluon/packages/dal/pydal/objects.py", line 121, in as_dict\n    d[k] = v.as_dict()\n  File "/media/onzalo/datos/web2py/gluon/packages/dal/pydal/objects.py", line 121, in as_dict\n    d[k] = v.as_dict()\n  File "/media/onzalo/datos/web2py/gluon/packages/dal/pydal/objects.py", line 121, in as_dict\n    d[k] = v.as_dict()\n  File "/media/onzalo/datos/web2py/gluon/packages/dal/pydal/objects.py", line 121, in as_dict\n    d[k] = v.as_dict()\n  File "/media/onzalo/datos/web2py/gluon/packages/dal/pydal/objects.py", line 121, in as_dict\n    d[k] = v.as_dict()\n  File "/media/onzalo/datos/web2py/gluon/packages/dal/pydal/objects.py", line 121, in as_dict\n    d[k] = v.as_dict()\n  File "/media/onzalo/datos/web2py/gluon/packages/dal/pydal/objects.py", line 121, in as_dict\n    d[k] = v.as_dict()\n  File "/media/onzalo/datos/web2py/gluon/packages/dal/pydal/objects.py", line 121, in as_dict\n    d[k] = v.as_dict()\n  File "/media/onzalo/datos/web2py/gluon/packages/dal/pydal/objects.py", line 121, in as_dict\n    d[k] = v.as_dict()\n  File "/media/onzalo/datos/web2py/gluon/packages/dal/pydal/objects.py", line 121, in as_dict\n    d[k] = v.as_dict()\n  File "/media/onzalo/datos/web2py/gluon/packages/dal/pydal/objects.py", line 121, in as_dict\n    d[k] = v.as_dict()\n  File "/media/onzalo/datos/web2py/gluon/packages/dal/pydal/objects.py", line 121, in as_dict\n    d[k] = v.as_dict()\n  File "/media/onzalo/datos/web2py/gluon/packages/dal/pydal/objects.py", line 121, in as_dict\n    d[k] = v.as_dict()\n  File "/media/onzalo/datos/web2py/gluon/packages/dal/pydal/objects.py", line 121, in as_dict\n    d[k] = v.as_dict()\n  File "/media/onzalo/datos/web2py/gluon/packages/dal/pydal/objects.py", line 121, in as_dict\n    d[k] = v.as_dict()\n  File "/media/onzalo/datos/web2py/gluon/packages/dal/pydal/objects.py", line 121, in as_dict\n    d[k] = v.as_dict()\n  File "/media/onzalo/datos/web2py/gluon/packages/dal/pydal/objects.py", line 121, in as_dict\n    d[k] = v.as_dict()\n  File "/media/onzalo/datos/web2py/gluon/packages/dal/pydal/objects.py", line 121, in as_dict\n    d[k] = v.as_dict()\n  File "/media/onzalo/datos/web2py/gluon/packages/dal/pydal/objects.py", line 121, in as_dict\n    d[k] = v.as_dict()\n  File "/media/onzalo/datos/web2py/gluon/packages/dal/pydal/objects.py", line 121, in as_dict\n    d[k] = v.as_dict()\n  File "/media/onzalo/datos/web2py/gluon/packages/dal/pydal/objects.py", line 121, in as_dict\n    d[k] = v.as_dict()\n  File "/media/onzalo/datos/web2py/gluon/packages/dal/pydal/objects.py", line 121, in as_dict\n    d[k] = v.as_dict()\n  File "/media/onzalo/datos/web2py/gluon/packages/dal/pydal/objects.py", line 121, in as_dict\n    d[k] = v.as_dict()\n  File "/media/onzalo/datos/web2py/gluon/packages/dal/pydal/objects.py", line 121, in as_dict\n    d[k] = v.as_dict()\n  File "/media/onzalo/datos/web2py/gluon/packages/dal/pydal/objects.py", line 121, in as_dict\n    d[k] = v.as_dict()\n  File "/media/onzalo/datos/web2py/gluon/packages/dal/pydal/objects.py", line 121, in as_dict\n    d[k] = v.as_dict()\n  File "/media/onzalo/datos/web2py/gluon/packages/dal/pydal/objects.py", line 121, in as_dict\n    d[k] = v.as_dict()\n  File "/media/onzalo/datos/web2py/gluon/packages/dal/pydal/objects.py", line 121, in as_dict\n    d[k] = v.as_dict()\n  File "/media/onzalo/datos/web2py/gluon/packages/dal/pydal/objects.py", line 121, in as_dict\n    d[k] = v.as_dict()\n  File "/media/onzalo/datos/web2py/gluon/packages/dal/pydal/objects.py", line 121, in as_dict\n    d[k] = v.as_dict()\n  File "/media/onzalo/datos/web2py/gluon/packages/dal/pydal/objects.py", line 121, in as_dict\n    d[k] = v.as_dict()\n  File "/media/onzalo/datos/web2py/gluon/packages/dal/pydal/objects.py", line 121, in as_dict\n    d[k] = v.as_dict()\n  File "/media/onzalo/datos/web2py/gluon/packages/dal/pydal/objects.py", line 121, in as_dict\n    d[k] = v.as_dict()\n  File "/media/onzalo/datos/web2py/gluon/packages/dal/pydal/objects.py", line 121, in as_dict\n    d[k] = v.as_dict()\n  File "/media/onzalo/datos/web2py/gluon/packages/dal/pydal/objects.py", line 121, in as_dict\n    d[k] = v.as_dict()\n  File "/media/onzalo/datos/web2py/gluon/packages/dal/pydal/objects.py", line 121, in as_dict\n    d[k] = v.as_dict()\n  File "/media/onzalo/datos/web2py/gluon/packages/dal/pydal/objects.py", line 121, in as_dict\n    d[k] = v.as_dict()\n  File "/media/onzalo/datos/web2py/gluon/packages/dal/pydal/objects.py", line 121, in as_dict\n    d[k] = v.as_dict()\n  File "/media/onzalo/datos/web2py/gluon/packages/dal/pydal/objects.py", line 121, in as_dict\n    d[k] = v.as_dict()\n  File "/media/onzalo/datos/web2py/gluon/packages/dal/pydal/objects.py", line 121, in as_dict\n    d[k] = v.as_dict()\n  File "/media/onzalo/datos/web2py/gluon/packages/dal/pydal/objects.py", line 121, in as_dict\n    d[k] = v.as_dict()\n  File "/media/onzalo/datos/web2py/gluon/packages/dal/pydal/objects.py", line 121, in as_dict\n    d[k] = v.as_dict()\n  File "/media/onzalo/datos/web2py/gluon/packages/dal/pydal/objects.py", line 121, in as_dict\n    d[k] = v.as_dict()\n  File "/media/onzalo/datos/web2py/gluon/packages/dal/pydal/objects.py", line 121, in as_dict\n    d[k] = v.as_dict()\n  File "/media/onzalo/datos/web2py/gluon/packages/dal/pydal/objects.py", line 121, in as_dict\n    d[k] = v.as_dict()\n  File "/media/onzalo/datos/web2py/gluon/packages/dal/pydal/objects.py", line 121, in as_dict\n    d[k] = v.as_dict()\n  File "/media/onzalo/datos/web2py/gluon/packages/dal/pydal/objects.py", line 121, in as_dict\n    d[k] = v.as_dict()\n  File "/media/onzalo/datos/web2py/gluon/packages/dal/pydal/objects.py", line 121, in as_dict\n    d[k] = v.as_dict()\n  File "/media/onzalo/datos/web2py/gluon/packages/dal/pydal/objects.py", line 121, in as_dict\n    d[k] = v.as_dict()\n  File "/media/onzalo/datos/web2py/gluon/packages/dal/pydal/objects.py", line 121, in as_dict\n    d[k] = v.as_dict()\n  File "/media/onzalo/datos/web2py/gluon/packages/dal/pydal/objects.py", line 121, in as_dict\n    d[k] = v.as_dict()\n  File "/media/onzalo/datos/web2py/gluon/packages/dal/pydal/objects.py", line 121, in as_dict\n    d[k] = v.as_dict()\n  File "/media/onzalo/datos/web2py/gluon/packages/dal/pydal/objects.py", line 121, in as_dict\n    d[k] = v.as_dict()\n  File "/media/onzalo/datos/web2py/gluon/packages/dal/pydal/objects.py", line 121, in as_dict\n    d[k] = v.as_dict()\n  File "/media/onzalo/datos/web2py/gluon/packages/dal/pydal/objects.py", line 121, in as_dict\n    d[k] = v.as_dict()\n  File "/media/onzalo/datos/web2py/gluon/packages/dal/pydal/objects.py", line 121, in as_dict\n    d[k] = v.as_dict()\n  File "/media/onzalo/datos/web2py/gluon/packages/dal/pydal/objects.py", line 121, in as_dict\n    d[k] = v.as_dict()\n  File "/media/onzalo/datos/web2py/gluon/packages/dal/pydal/objects.py", line 121, in as_dict\n    d[k] = v.as_dict()\n  File "/media/onzalo/datos/web2py/gluon/packages/dal/pydal/objects.py", line 121, in as_dict\n    d[k] = v.as_dict()\n  File "/media/onzalo/datos/web2py/gluon/packages/dal/pydal/objects.py", line 121, in as_dict\n    d[k] = v.as_dict()\n  File "/media/onzalo/datos/web2py/gluon/packages/dal/pydal/objects.py", line 121, in as_dict\n    d[k] = v.as_dict()\n  File "/media/onzalo/datos/web2py/gluon/packages/dal/pydal/objects.py", line 121, in as_dict\n    d[k] = v.as_dict()\n  File "/media/onzalo/datos/web2py/gluon/packages/dal/pydal/objects.py", line 121, in as_dict\n    d[k] = v.as_dict()\n  File "/media/onzalo/datos/web2py/gluon/packages/dal/pydal/objects.py", line 121, in as_dict\n    d[k] = v.as_dict()\n  File "/media/onzalo/datos/web2py/gluon/packages/dal/pydal/objects.py", line 121, in as_dict\n    d[k] = v.as_dict()\n  File "/media/onzalo/datos/web2py/gluon/packages/dal/pydal/objects.py", line 121, in as_dict\n    d[k] = v.as_dict()\n  File "/media/onzalo/datos/web2py/gluon/packages/dal/pydal/objects.py", line 121, in as_dict\n    d[k] = v.as_dict()\n  File "/media/onzalo/datos/web2py/gluon/packages/dal/pydal/objects.py", line 121, in as_dict\n    d[k] = v.as_dict()\n  File "/media/onzalo/datos/web2py/gluon/packages/dal/pydal/objects.py", line 121, in as_dict\n    d[k] = v.as_dict()\n  File "/media/onzalo/datos/web2py/gluon/packages/dal/pydal/objects.py", line 121, in as_dict\n    d[k] = v.as_dict()\n  File "/media/onzalo/datos/web2py/gluon/packages/dal/pydal/objects.py", line 121, in as_dict\n    d[k] = v.as_dict()\n  File "/media/onzalo/datos/web2py/gluon/packages/dal/pydal/objects.py", line 121, in as_dict\n    d[k] = v.as_dict()\n  File "/media/onzalo/datos/web2py/gluon/packages/dal/pydal/objects.py", line 121, in as_dict\n    d[k] = v.as_dict()\n  File "/media/onzalo/datos/web2py/gluon/packages/dal/pydal/objects.py", line 121, in as_dict\n    d[k] = v.as_dict()\n  File "/media/onzalo/datos/web2py/gluon/packages/dal/pydal/objects.py", line 121, in as_dict\n    d[k] = v.as_dict()\n  File "/media/onzalo/datos/web2py/gluon/packages/dal/pydal/objects.py", line 121, in as_dict\n    d[k] = v.as_dict()\n  File "/media/onzalo/datos/web2py/gluon/packages/dal/pydal/objects.py", line 121, in as_dict\n    d[k] = v.as_dict()\n  File "/media/onzalo/datos/web2py/gluon/packages/dal/pydal/objects.py", line 121, in as_dict\n    d[k] = v.as_dict()\n  File "/media/onzalo/datos/web2py/gluon/packages/dal/pydal/objects.py", line 121, in as_dict\n    d[k] = v.as_dict()\n  File "/media/onzalo/datos/web2py/gluon/packages/dal/pydal/objects.py", line 121, in as_dict\n    d[k] = v.as_dict()\n  File "/media/onzalo/datos/web2py/gluon/packages/dal/pydal/objects.py", line 121, in as_dict\n    d[k] = v.as_dict()\n  File "/media/onzalo/datos/web2py/gluon/packages/dal/pydal/objects.py", line 121, in as_dict\n    d[k] = v.as_dict()\n  File "/media/onzalo/datos/web2py/gluon/packages/dal/pydal/objects.py", line 121, in as_dict\n    d[k] = v.as_dict()\n  File "/media/onzalo/datos/web2py/gluon/packages/dal/pydal/objects.py", line 121, in as_dict\n    d[k] = v.as_dict()\n  File "/media/onzalo/datos/web2py/gluon/packages/dal/pydal/objects.py", line 121, in as_dict\n    d[k] = v.as_dict()\n  File "/media/onzalo/datos/web2py/gluon/packages/dal/pydal/objects.py", line 121, in as_dict\n    d[k] = v.as_dict()\n  File "/media/onzalo/datos/web2py/gluon/packages/dal/pydal/objects.py", line 121, in as_dict\n    d[k] = v.as_dict()\n  File "/media/onzalo/datos/web2py/gluon/packages/dal/pydal/objects.py", line 121, in as_dict\n    d[k] = v.as_dict()\n  File "/media/onzalo/datos/web2py/gluon/packages/dal/pydal/objects.py", line 121, in as_dict\n    d[k] = v.as_dict()\n  File "/media/onzalo/datos/web2py/gluon/packages/dal/pydal/objects.py", line 121, in as_dict\n    d[k] = v.as_dict()\n  File "/media/onzalo/datos/web2py/gluon/packages/dal/pydal/objects.py", line 121, in as_dict\n    d[k] = v.as_dict()\n  File "/media/onzalo/datos/web2py/gluon/packages/dal/pydal/objects.py", line 121, in as_dict\n    d[k] = v.as_dict()\n  File "/media/onzalo/datos/web2py/gluon/packages/dal/pydal/objects.py", line 121, in as_dict\n    d[k] = v.as_dict()\n  File "/media/onzalo/datos/web2py/gluon/packages/dal/pydal/objects.py", line 121, in as_dict\n    d[k] = v.as_dict()\n  File "/media/onzalo/datos/web2py/gluon/packages/dal/pydal/objects.py", line 121, in as_dict\n    d[k] = v.as_dict()\n  File "/media/onzalo/datos/web2py/gluon/packages/dal/pydal/objects.py", line 121, in as_dict\n    d[k] = v.as_dict()\n  File "/media/onzalo/datos/web2py/gluon/packages/dal/pydal/objects.py", line 121, in as_dict\n    d[k] = v.as_dict()\n  File "/media/onzalo/datos/web2py/gluon/packages/dal/pydal/objects.py", line 121, in as_dict\n    d[k] = v.as_dict()\n  File "/media/onzalo/datos/web2py/gluon/packages/dal/pydal/objects.py", line 121, in as_dict\n    d[k] = v.as_dict()\n  File "/media/onzalo/datos/web2py/gluon/packages/dal/pydal/objects.py", line 121, in as_dict\n    d[k] = v.as_dict()\n  File "/media/onzalo/datos/web2py/gluon/packages/dal/pydal/objects.py", line 121, in as_dict\n    d[k] = v.as_dict()\n  File "/media/onzalo/datos/web2py/gluon/packages/dal/pydal/objects.py", line 121, in as_dict\n    d[k] = v.as_dict()\n  File "/media/onzalo/datos/web2py/gluon/packages/dal/pydal/objects.py", line 121, in as_dict\n    d[k] = v.as_dict()\n  File "/media/onzalo/datos/web2py/gluon/packages/dal/pydal/objects.py", line 121, in as_dict\n    d[k] = v.as_dict()\n  File "/media/onzalo/datos/web2py/gluon/packages/dal/pydal/objects.py", line 121, in as_dict\n    d[k] = v.as_dict()\n  File "/media/onzalo/datos/web2py/gluon/packages/dal/pydal/objects.py", line 121, in as_dict\n    d[k] = v.as_dict()\n  File "/media/onzalo/datos/web2py/gluon/packages/dal/pydal/objects.py", line 121, in as_dict\n    d[k] = v.as_dict()\n  File "/media/onzalo/datos/web2py/gluon/packages/dal/pydal/objects.py", line 121, in as_dict\n    d[k] = v.as_dict()\n  File "/media/onzalo/datos/web2py/gluon/packages/dal/pydal/objects.py", line 121, in as_dict\n    d[k] = v.as_dict()\n  File "/media/onzalo/datos/web2py/gluon/packages/dal/pydal/objects.py", line 121, in as_dict\n    d[k] = v.as_dict()\n  File "/media/onzalo/datos/web2py/gluon/packages/dal/pydal/objects.py", line 121, in as_dict\n    d[k] = v.as_dict()\n  File "/media/onzalo/datos/web2py/gluon/packages/dal/pydal/objects.py", line 121, in as_dict\n    d[k] = v.as_dict()\n  File "/media/onzalo/datos/web2py/gluon/packages/dal/pydal/objects.py", line 121, in as_dict\n    d[k] = v.as_dict()\n  File "/media/onzalo/datos/web2py/gluon/packages/dal/pydal/objects.py", line 121, in as_dict\n    d[k] = v.as_dict()\n  File "/media/onzalo/datos/web2py/gluon/packages/dal/pydal/objects.py", line 121, in as_dict\n    d[k] = v.as_dict()\n  File "/media/onzalo/datos/web2py/gluon/packages/dal/pydal/objects.py", line 121, in as_dict\n    d[k] = v.as_dict()\n  File "/media/onzalo/datos/web2py/gluon/packages/dal/pydal/objects.py", line 121, in as_dict\n    d[k] = v.as_dict()\n  File "/media/onzalo/datos/web2py/gluon/packages/dal/pydal/objects.py", line 121, in as_dict\n    d[k] = v.as_dict()\n  File "/media/onzalo/datos/web2py/gluon/packages/dal/pydal/objects.py", line 121, in as_dict\n    d[k] = v.as_dict()\n  File "/media/onzalo/datos/web2py/gluon/packages/dal/pydal/objects.py", line 121, in as_dict\n    d[k] = v.as_dict()\n  File "/media/onzalo/datos/web2py/gluon/packages/dal/pydal/objects.py", line 121, in as_dict\n    d[k] = v.as_dict()\n  File "/media/onzalo/datos/web2py/gluon/packages/dal/pydal/objects.py", line 121, in as_dict\n    d[k] = v.as_dict()\n  File "/media/onzalo/datos/web2py/gluon/packages/dal/pydal/objects.py", line 121, in as_dict\n    d[k] = v.as_dict()\n  File "/media/onzalo/datos/web2py/gluon/packages/dal/pydal/objects.py", line 121, in as_dict\n    d[k] = v.as_dict()\n  File "/media/onzalo/datos/web2py/gluon/packages/dal/pydal/objects.py", line 121, in as_dict\n    d[k] = v.as_dict()\n  File "/media/onzalo/datos/web2py/gluon/packages/dal/pydal/objects.py", line 121, in as_dict\n    d[k] = v.as_dict()\n  File "/media/onzalo/datos/web2py/gluon/packages/dal/pydal/objects.py", line 121, in as_dict\n    d[k] = v.as_dict()\n  File "/media/onzalo/datos/web2py/gluon/packages/dal/pydal/objects.py", line 121, in as_dict\n    d[k] = v.as_dict()\n  File "/media/onzalo/datos/web2py/gluon/packages/dal/pydal/objects.py", line 121, in as_dict\n    d[k] = v.as_dict()\n  File "/media/onzalo/datos/web2py/gluon/packages/dal/pydal/objects.py", line 121, in as_dict\n    d[k] = v.as_dict()\n  File "/media/onzalo/datos/web2py/gluon/packages/dal/pydal/objects.py", line 121, in as_dict\n    d[k] = v.as_dict()\n  File "/media/onzalo/datos/web2py/gluon/packages/dal/pydal/objects.py", line 121, in as_dict\n    d[k] = v.as_dict()\n  File "/media/onzalo/datos/web2py/gluon/packages/dal/pydal/objects.py", line 121, in as_dict\n    d[k] = v.as_dict()\n  File "/media/onzalo/datos/web2py/gluon/packages/dal/pydal/objects.py", line 121, in as_dict\n    d[k] = v.as_dict()\n  File "/media/onzalo/datos/web2py/gluon/packages/dal/pydal/objects.py", line 121, in as_dict\n    d[k] = v.as_dict()\n  File "/media/onzalo/datos/web2py/gluon/packages/dal/pydal/objects.py", line 121, in as_dict\n    d[k] = v.as_dict()\n  File "/media/onzalo/datos/web2py/gluon/packages/dal/pydal/objects.py", line 121, in as_dict\n    d[k] = v.as_dict()\n  File "/media/onzalo/datos/web2py/gluon/packages/dal/pydal/objects.py", line 121, in as_dict\n    d[k] = v.as_dict()\n  File "/media/onzalo/datos/web2py/gluon/packages/dal/pydal/objects.py", line 121, in as_dict\n    d[k] = v.as_dict()\n  File "/media/onzalo/datos/web2py/gluon/packages/dal/pydal/objects.py", line 121, in as_dict\n    d[k] = v.as_dict()\n  File "/media/onzalo/datos/web2py/gluon/packages/dal/pydal/objects.py", line 121, in as_dict\n    d[k] = v.as_dict()\n  File "/media/onzalo/datos/web2py/gluon/packages/dal/pydal/objects.py", line 121, in as_dict\n    d[k] = v.as_dict()\n  File "/media/onzalo/datos/web2py/gluon/packages/dal/pydal/objects.py", line 121, in as_dict\n    d[k] = v.as_dict()\n  File "/media/onzalo/datos/web2py/gluon/packages/dal/pydal/objects.py", line 121, in as_dict\n    d[k] = v.as_dict()\n  File "/media/onzalo/datos/web2py/gluon/packages/dal/pydal/objects.py", line 121, in as_dict\n    d[k] = v.as_dict()\n  File "/media/onzalo/datos/web2py/gluon/packages/dal/pydal/objects.py", line 121, in as_dict\n    d[k] = v.as_dict()\n  File "/media/onzalo/datos/web2py/gluon/packages/dal/pydal/objects.py", line 121, in as_dict\n    d[k] = v.as_dict()\n  File "/media/onzalo/datos/web2py/gluon/packages/dal/pydal/objects.py", line 121, in as_dict\n    d[k] = v.as_dict()\n  File "/media/onzalo/datos/web2py/gluon/packages/dal/pydal/objects.py", line 121, in as_dict\n    d[k] = v.as_dict()\n  File "/media/onzalo/datos/web2py/gluon/packages/dal/pydal/objects.py", line 121, in as_dict\n    d[k] = v.as_dict()\n  File "/media/onzalo/datos/web2py/gluon/packages/dal/pydal/objects.py", line 121, in as_dict\n    d[k] = v.as_dict()\n  File "/media/onzalo/datos/web2py/gluon/packages/dal/pydal/objects.py", line 121, in as_dict\n    d[k] = v.as_dict()\n  File "/media/onzalo/datos/web2py/gluon/packages/dal/pydal/objects.py", line 121, in as_dict\n    d[k] = v.as_dict()\n  File "/media/onzalo/datos/web2py/gluon/packages/dal/pydal/objects.py", line 121, in as_dict\n    d[k] = v.as_dict()\n  File "/media/onzalo/datos/web2py/gluon/packages/dal/pydal/objects.py", line 121, in as_dict\n    d[k] = v.as_dict()\n  File "/media/onzalo/datos/web2py/gluon/packages/dal/pydal/objects.py", line 121, in as_dict\n    d[k] = v.as_dict()\n  File "/media/onzalo/datos/web2py/gluon/packages/dal/pydal/objects.py", line 121, in as_dict\n    d[k] = v.as_dict()\n  File "/media/onzalo/datos/web2py/gluon/packages/dal/pydal/objects.py", line 121, in as_dict\n    d[k] = v.as_dict()\n  File "/media/onzalo/datos/web2py/gluon/packages/dal/pydal/objects.py", line 121, in as_dict\n    d[k] = v.as_dict()\n  File "/media/onzalo/datos/web2py/gluon/packages/dal/pydal/objects.py", line 121, in as_dict\n    d[k] = v.as_dict()\n  File "/media/onzalo/datos/web2py/gluon/packages/dal/pydal/objects.py", line 121, in as_dict\n    d[k] = v.as_dict()\n  File "/media/onzalo/datos/web2py/gluon/packages/dal/pydal/objects.py", line 121, in as_dict\n    d[k] = v.as_dict()\n  File "/media/onzalo/datos/web2py/gluon/packages/dal/pydal/objects.py", line 121, in as_dict\n    d[k] = v.as_dict()\n  File "/media/onzalo/datos/web2py/gluon/packages/dal/pydal/objects.py", line 121, in as_dict\n    d[k] = v.as_dict()\n  File "/media/onzalo/datos/web2py/gluon/packages/dal/pydal/objects.py", line 121, in as_dict\n    d[k] = v.as_dict()\n  File "/media/onzalo/datos/web2py/gluon/packages/dal/pydal/objects.py", line 121, in as_dict\n    d[k] = v.as_dict()\n  File "/media/onzalo/datos/web2py/gluon/packages/dal/pydal/objects.py", line 121, in as_dict\n    d[k] = v.as_dict()\n  File "/media/onzalo/datos/web2py/gluon/packages/dal/pydal/objects.py", line 121, in as_dict\n    d[k] = v.as_dict()\n  File "/media/onzalo/datos/web2py/gluon/packages/dal/pydal/objects.py", line 121, in as_dict\n    d[k] = v.as_dict()\n  File "/media/onzalo/datos/web2py/gluon/packages/dal/pydal/objects.py", line 121, in as_dict\n    d[k] = v.as_dict()\n  File "/media/onzalo/datos/web2py/gluon/packages/dal/pydal/objects.py", line 121, in as_dict\n    d[k] = v.as_dict()\n  File "/media/onzalo/datos/web2py/gluon/packages/dal/pydal/objects.py", line 121, in as_dict\n    d[k] = v.as_dict()\n  File "/media/onzalo/datos/web2py/gluon/packages/dal/pydal/objects.py", line 121, in as_dict\n    d[k] = v.as_dict()\n  File "/media/onzalo/datos/web2py/gluon/packages/dal/pydal/objects.py", line 121, in as_dict\n    d[k] = v.as_dict()\n  File "/media/onzalo/datos/web2py/gluon/packages/dal/pydal/objects.py", line 121, in as_dict\n    d[k] = v.as_dict()\n  File "/media/onzalo/datos/web2py/gluon/packages/dal/pydal/objects.py", line 121, in as_dict\n    d[k] = v.as_dict()\n  File "/media/onzalo/datos/web2py/gluon/packages/dal/pydal/objects.py", line 121, in as_dict\n    d[k] = v.as_dict()\n  File "/media/onzalo/datos/web2py/gluon/packages/dal/pydal/objects.py", line 121, in as_dict\n    d[k] = v.as_dict()\n  File "/media/onzalo/datos/web2py/gluon/packages/dal/pydal/objects.py", line 121, in as_dict\n    d[k] = v.as_dict()\n  File "/media/onzalo/datos/web2py/gluon/packages/dal/pydal/objects.py", line 121, in as_dict\n    d[k] = v.as_dict()\n  File "/media/onzalo/datos/web2py/gluon/packages/dal/pydal/objects.py", line 121, in as_dict\n    d[k] = v.as_dict()\n  File "/media/onzalo/datos/web2py/gluon/packages/dal/pydal/objects.py", line 121, in as_dict\n    d[k] = v.as_dict()\n  File "/media/onzalo/datos/web2py/gluon/packages/dal/pydal/objects.py", line 121, in as_dict\n    d[k] = v.as_dict()\n  File "/media/onzalo/datos/web2py/gluon/packages/dal/pydal/objects.py", line 121, in as_dict\n    d[k] = v.as_dict()\n  File "/media/onzalo/datos/web2py/gluon/packages/dal/pydal/objects.py", line 121, in as_dict\n    d[k] = v.as_dict()\n  File "/media/onzalo/datos/web2py/gluon/packages/dal/pydal/objects.py", line 121, in as_dict\n    d[k] = v.as_dict()\n  File "/media/onzalo/datos/web2py/gluon/packages/dal/pydal/objects.py", line 121, in as_dict\n    d[k] = v.as_dict()\n  File "/media/onzalo/datos/web2py/gluon/packages/dal/pydal/objects.py", line 121, in as_dict\n    d[k] = v.as_dict()\n  File "/media/onzalo/datos/web2py/gluon/packages/dal/pydal/objects.py", line 121, in as_dict\n    d[k] = v.as_dict()\n  File "/media/onzalo/datos/web2py/gluon/packages/dal/pydal/objects.py", line 121, in as_dict\n    d[k] = v.as_dict()\n  File "/media/onzalo/datos/web2py/gluon/packages/dal/pydal/objects.py", line 121, in as_dict\n    d[k] = v.as_dict()\n  File "/media/onzalo/datos/web2py/gluon/packages/dal/pydal/objects.py", line 121, in as_dict\n    d[k] = v.as_dict()\n  File "/media/onzalo/datos/web2py/gluon/packages/dal/pydal/objects.py", line 121, in as_dict\n    d[k] = v.as_dict()\n  File "/media/onzalo/datos/web2py/gluon/packages/dal/pydal/objects.py", line 121, in as_dict\n    d[k] = v.as_dict()\n  File "/media/onzalo/datos/web2py/gluon/packages/dal/pydal/objects.py", line 121, in as_dict\n    d[k] = v.as_dict()\n  File "/media/onzalo/datos/web2py/gluon/packages/dal/pydal/objects.py", line 121, in as_dict\n    d[k] = v.as_dict()\n  File "/media/onzalo/datos/web2py/gluon/packages/dal/pydal/objects.py", line 121, in as_dict\n    d[k] = v.as_dict()\n  File "/media/onzalo/datos/web2py/gluon/packages/dal/pydal/objects.py", line 121, in as_dict\n    d[k] = v.as_dict()\n  File "/media/onzalo/datos/web2py/gluon/packages/dal/pydal/objects.py", line 121, in as_dict\n    d[k] = v.as_dict()\n  File "/media/onzalo/datos/web2py/gluon/packages/dal/pydal/objects.py", line 121, in as_dict\n    d[k] = v.as_dict()\n  File "/media/onzalo/datos/web2py/gluon/packages/dal/pydal/objects.py", line 121, in as_dict\n    d[k] = v.as_dict()\n  File "/media/onzalo/datos/web2py/gluon/packages/dal/pydal/objects.py", line 121, in as_dict\n    d[k] = v.as_dict()\n  File "/media/onzalo/datos/web2py/gluon/packages/dal/pydal/objects.py", line 121, in as_dict\n    d[k] = v.as_dict()\n  File "/media/onzalo/datos/web2py/gluon/packages/dal/pydal/objects.py", line 121, in as_dict\n    d[k] = v.as_dict()\n  File "/media/onzalo/datos/web2py/gluon/packages/dal/pydal/objects.py", line 121, in as_dict\n    d[k] = v.as_dict()\n  File "/media/onzalo/datos/web2py/gluon/packages/dal/pydal/objects.py", line 121, in as_dict\n    d[k] = v.as_dict()\n  File "/media/onzalo/datos/web2py/gluon/packages/dal/pydal/objects.py", line 121, in as_dict\n    d[k] = v.as_dict()\n  File "/media/onzalo/datos/web2py/gluon/packages/dal/pydal/objects.py", line 121, in as_dict\n    d[k] = v.as_dict()\n  File "/media/onzalo/datos/web2py/gluon/packages/dal/pydal/objects.py", line 121, in as_dict\n    d[k] = v.as_dict()\n  File "/media/onzalo/datos/web2py/gluon/packages/dal/pydal/objects.py", line 121, in as_dict\n    d[k] = v.as_dict()\n  File "/media/onzalo/datos/web2py/gluon/packages/dal/pydal/objects.py", line 121, in as_dict\n    d[k] = v.as_dict()\n  File "/media/onzalo/datos/web2py/gluon/packages/dal/pydal/objects.py", line 121, in as_dict\n    d[k] = v.as_dict()\n  File "/media/onzalo/datos/web2py/gluon/packages/dal/pydal/objects.py", line 121, in as_dict\n    d[k] = v.as_dict()\n  File "/media/onzalo/datos/web2py/gluon/packages/dal/pydal/objects.py", line 121, in as_dict\n    d[k] = v.as_dict()\n  File "/media/onzalo/datos/web2py/gluon/packages/dal/pydal/objects.py", line 121, in as_dict\n    d[k] = v.as_dict()\n  File "/media/onzalo/datos/web2py/gluon/packages/dal/pydal/objects.py", line 121, in as_dict\n    d[k] = v.as_dict()\n  File "/media/onzalo/datos/web2py/gluon/packages/dal/pydal/objects.py", line 121, in as_dict\n    d[k] = v.as_dict()\n  File "/media/onzalo/datos/web2py/gluon/packages/dal/pydal/objects.py", line 121, in as_dict\n    d[k] = v.as_dict()\n  File "/media/onzalo/datos/web2py/gluon/packages/dal/pydal/objects.py", line 121, in as_dict\n    d[k] = v.as_dict()\n  File "/media/onzalo/datos/web2py/gluon/packages/dal/pydal/objects.py", line 121, in as_dict\n    d[k] = v.as_dict()\n  File "/media/onzalo/datos/web2py/gluon/packages/dal/pydal/objects.py", line 121, in as_dict\n    d[k] = v.as_dict()\n  File "/media/onzalo/datos/web2py/gluon/packages/dal/pydal/objects.py", line 121, in as_dict\n    d[k] = v.as_dict()\n  File "/media/onzalo/datos/web2py/gluon/packages/dal/pydal/objects.py", line 121, in as_dict\n    d[k] = v.as_dict()\n  File "/media/onzalo/datos/web2py/gluon/packages/dal/pydal/objects.py", line 121, in as_dict\n    d[k] = v.as_dict()\n  File "/media/onzalo/datos/web2py/gluon/packages/dal/pydal/objects.py", line 121, in as_dict\n    d[k] = v.as_dict()\n  File "/media/onzalo/datos/web2py/gluon/packages/dal/pydal/objects.py", line 121, in as_dict\n    d[k] = v.as_dict()\n  File "/media/onzalo/datos/web2py/gluon/packages/dal/pydal/objects.py", line 121, in as_dict\n    d[k] = v.as_dict()\n  File "/media/onzalo/datos/web2py/gluon/packages/dal/pydal/objects.py", line 121, in as_dict\n    d[k] = v.as_dict()\n  File "/media/onzalo/datos/web2py/gluon/packages/dal/pydal/objects.py", line 121, in as_dict\n    d[k] = v.as_dict()\n  File "/media/onzalo/datos/web2py/gluon/packages/dal/pydal/objects.py", line 121, in as_dict\n    d[k] = v.as_dict()\n  File "/media/onzalo/datos/web2py/gluon/packages/dal/pydal/objects.py", line 121, in as_dict\n    d[k] = v.as_dict()\n  File "/media/onzalo/datos/web2py/gluon/packages/dal/pydal/objects.py", line 121, in as_dict\n    d[k] = v.as_dict()\n  File "/media/onzalo/datos/web2py/gluon/packages/dal/pydal/objects.py", line 121, in as_dict\n    d[k] = v.as_dict()\n  File "/media/onzalo/datos/web2py/gluon/packages/dal/pydal/objects.py", line 121, in as_dict\n    d[k] = v.as_dict()\n  File "/media/onzalo/datos/web2py/gluon/packages/dal/pydal/objects.py", line 121, in as_dict\n    d[k] = v.as_dict()\n  File "/media/onzalo/datos/web2py/gluon/packages/dal/pydal/objects.py", line 121, in as_dict\n    d[k] = v.as_dict()\n  File "/media/onzalo/datos/web2py/gluon/packages/dal/pydal/objects.py", line 121, in as_dict\n    d[k] = v.as_dict()\n  File "/media/onzalo/datos/web2py/gluon/packages/dal/pydal/objects.py", line 121, in as_dict\n    d[k] = v.as_dict()\n  File "/media/onzalo/datos/web2py/gluon/packages/dal/pydal/objects.py", line 121, in as_dict\n    d[k] = v.as_dict()\n  File "/media/onzalo/datos/web2py/gluon/packages/dal/pydal/objects.py", line 121, in as_dict\n    d[k] = v.as_dict()\n  File "/media/onzalo/datos/web2py/gluon/packages/dal/pydal/objects.py", line 121, in as_dict\n    d[k] = v.as_dict()\n  File "/media/onzalo/datos/web2py/gluon/packages/dal/pydal/objects.py", line 121, in as_dict\n    d[k] = v.as_dict()\n  File "/media/onzalo/datos/web2py/gluon/packages/dal/pydal/objects.py", line 121, in as_dict\n    d[k] = v.as_dict()\n  File "/media/onzalo/datos/web2py/gluon/packages/dal/pydal/objects.py", line 121, in as_dict\n    d[k] = v.as_dict()\n  File "/media/onzalo/datos/web2py/gluon/packages/dal/pydal/objects.py", line 121, in as_dict\n    d[k] = v.as_dict()\n  File "/media/onzalo/datos/web2py/gluon/packages/dal/pydal/objects.py", line 121, in as_dict\n    d[k] = v.as_dict()\n  File "/media/onzalo/datos/web2py/gluon/packages/dal/pydal/objects.py", line 121, in as_dict\n    d[k] = v.as_dict()\n  File "/media/onzalo/datos/web2py/gluon/packages/dal/pydal/objects.py", line 121, in as_dict\n    d[k] = v.as_dict()\n  File "/media/onzalo/datos/web2py/gluon/packages/dal/pydal/objects.py", line 121, in as_dict\n    d[k] = v.as_dict()\n  File "/media/onzalo/datos/web2py/gluon/packages/dal/pydal/objects.py", line 121, in as_dict\n    d[k] = v.as_dict()\n  File "/media/onzalo/datos/web2py/gluon/packages/dal/pydal/objects.py", line 121, in as_dict\n    d[k] = v.as_dict()\n  File "/media/onzalo/datos/web2py/gluon/packages/dal/pydal/objects.py", line 121, in as_dict\n    d[k] = v.as_dict()\n  File "/media/onzalo/datos/web2py/gluon/packages/dal/pydal/objects.py", line 121, in as_dict\n    d[k] = v.as_dict()\n  File "/media/onzalo/datos/web2py/gluon/packages/dal/pydal/objects.py", line 121, in as_dict\n    d[k] = v.as_dict()\n  File "/media/onzalo/datos/web2py/gluon/packages/dal/pydal/objects.py", line 121, in as_dict\n    d[k] = v.as_dict()\n  File "/media/onzalo/datos/web2py/gluon/packages/dal/pydal/objects.py", line 121, in as_dict\n    d[k] = v.as_dict()\n  File "/media/onzalo/datos/web2py/gluon/packages/dal/pydal/objects.py", line 121, in as_dict\n    d[k] = v.as_dict()\n  File "/media/onzalo/datos/web2py/gluon/packages/dal/pydal/objects.py", line 121, in as_dict\n    d[k] = v.as_dict()\n  File "/media/onzalo/datos/web2py/gluon/packages/dal/pydal/objects.py", line 121, in as_dict\n    d[k] = v.as_dict()\n  File "/media/onzalo/datos/web2py/gluon/packages/dal/pydal/objects.py", line 121, in as_dict\n    d[k] = v.as_dict()\n  File "/media/onzalo/datos/web2py/gluon/packages/dal/pydal/objects.py", line 121, in as_dict\n    d[k] = v.as_dict()\n  File "/media/onzalo/datos/web2py/gluon/packages/dal/pydal/objects.py", line 121, in as_dict\n    d[k] = v.as_dict()\n  File "/media/onzalo/datos/web2py/gluon/packages/dal/pydal/objects.py", line 121, in as_dict\n    d[k] = v.as_dict()\n  File "/media/onzalo/datos/web2py/gluon/packages/dal/pydal/objects.py", line 121, in as_dict\n    d[k] = v.as_dict()\n  File "/media/onzalo/datos/web2py/gluon/packages/dal/pydal/objects.py", line 121, in as_dict\n    d[k] = v.as_dict()\n  File "/media/onzalo/datos/web2py/gluon/packages/dal/pydal/objects.py", line 121, in as_dict\n    d[k] = v.as_dict()\n  File "/media/onzalo/datos/web2py/gluon/packages/dal/pydal/objects.py", line 121, in as_dict\n    d[k] = v.as_dict()\n  File "/media/onzalo/datos/web2py/gluon/packages/dal/pydal/objects.py", line 121, in as_dict\n    d[k] = v.as_dict()\n  File "/media/onzalo/datos/web2py/gluon/packages/dal/pydal/objects.py", line 121, in as_dict\n    d[k] = v.as_dict()\n  File "/media/onzalo/datos/web2py/gluon/packages/dal/pydal/objects.py", line 121, in as_dict\n    d[k] = v.as_dict()\n  File "/media/onzalo/datos/web2py/gluon/packages/dal/pydal/objects.py", line 121, in as_dict\n    d[k] = v.as_dict()\n  File "/media/onzalo/datos/web2py/gluon/packages/dal/pydal/objects.py", line 121, in as_dict\n    d[k] = v.as_dict()\n  File "/media/onzalo/datos/web2py/gluon/packages/dal/pydal/objects.py", line 121, in as_dict\n    d[k] = v.as_dict()\n  File "/media/onzalo/datos/web2py/gluon/packages/dal/pydal/objects.py", line 121, in as_dict\n    d[k] = v.as_dict()\n  File "/media/onzalo/datos/web2py/gluon/packages/dal/pydal/objects.py", line 121, in as_dict\n    d[k] = v.as_dict()\n  File "/media/onzalo/datos/web2py/gluon/packages/dal/pydal/objects.py", line 121, in as_dict\n    d[k] = v.as_dict()\n  File "/media/onzalo/datos/web2py/gluon/packages/dal/pydal/objects.py", line 121, in as_dict\n    d[k] = v.as_dict()\n  File "/media/onzalo/datos/web2py/gluon/packages/dal/pydal/objects.py", line 121, in as_dict\n    d[k] = v.as_dict()\n  File "/media/onzalo/datos/web2py/gluon/packages/dal/pydal/objects.py", line 121, in as_dict\n    d[k] = v.as_dict()\n  File "/media/onzalo/datos/web2py/gluon/packages/dal/pydal/objects.py", line 121, in as_dict\n    d[k] = v.as_dict()\n  File "/media/onzalo/datos/web2py/gluon/packages/dal/pydal/objects.py", line 121, in as_dict\n    d[k] = v.as_dict()\n  File "/media/onzalo/datos/web2py/gluon/packages/dal/pydal/objects.py", line 121, in as_dict\n    d[k] = v.as_dict()\n  File "/media/onzalo/datos/web2py/gluon/packages/dal/pydal/objects.py", line 121, in as_dict\n    d[k] = v.as_dict()\n  File "/media/onzalo/datos/web2py/gluon/packages/dal/pydal/objects.py", line 121, in as_dict\n    d[k] = v.as_dict()\n  File "/media/onzalo/datos/web2py/gluon/packages/dal/pydal/objects.py", line 121, in as_dict\n    d[k] = v.as_dict()\n  File "/media/onzalo/datos/web2py/gluon/packages/dal/pydal/objects.py", line 121, in as_dict\n    d[k] = v.as_dict()\n  File "/media/onzalo/datos/web2py/gluon/packages/dal/pydal/objects.py", line 121, in as_dict\n    d[k] = v.as_dict()\n  File "/media/onzalo/datos/web2py/gluon/packages/dal/pydal/objects.py", line 121, in as_dict\n    d[k] = v.as_dict()\n  File "/media/onzalo/datos/web2py/gluon/packages/dal/pydal/objects.py", line 121, in as_dict\n    d[k] = v.as_dict()\n  File "/media/onzalo/datos/web2py/gluon/packages/dal/pydal/objects.py", line 121, in as_dict\n    d[k] = v.as_dict()\n  File "/media/onzalo/datos/web2py/gluon/packages/dal/pydal/objects.py", line 121, in as_dict\n    d[k] = v.as_dict()\n  File "/media/onzalo/datos/web2py/gluon/packages/dal/pydal/objects.py", line 121, in as_dict\n    d[k] = v.as_dict()\n  File "/media/onzalo/datos/web2py/gluon/packages/dal/pydal/objects.py", line 121, in as_dict\n    d[k] = v.as_dict()\n  File "/media/onzalo/datos/web2py/gluon/packages/dal/pydal/objects.py", line 121, in as_dict\n    d[k] = v.as_dict()\n  File "/media/onzalo/datos/web2py/gluon/packages/dal/pydal/objects.py", line 121, in as_dict\n    d[k] = v.as_dict()\n  File "/media/onzalo/datos/web2py/gluon/packages/dal/pydal/objects.py", line 121, in as_dict\n    d[k] = v.as_dict()\n  File "/media/onzalo/datos/web2py/gluon/packages/dal/pydal/objects.py", line 121, in as_dict\n    d[k] = v.as_dict()\n  File "/media/onzalo/datos/web2py/gluon/packages/dal/pydal/objects.py", line 121, in as_dict\n    d[k] = v.as_dict()\n  File "/media/onzalo/datos/web2py/gluon/packages/dal/pydal/objects.py", line 121, in as_dict\n    d[k] = v.as_dict()\n  File "/media/onzalo/datos/web2py/gluon/packages/dal/pydal/objects.py", line 121, in as_dict\n    d[k] = v.as_dict()\n  File "/media/onzalo/datos/web2py/gluon/packages/dal/pydal/objects.py", line 121, in as_dict\n    d[k] = v.as_dict()\n  File "/media/onzalo/datos/web2py/gluon/packages/dal/pydal/objects.py", line 121, in as_dict\n    d[k] = v.as_dict()\n  File "/media/onzalo/datos/web2py/gluon/packages/dal/pydal/objects.py", line 121, in as_dict\n    d[k] = v.as_dict()\n  File "/media/onzalo/datos/web2py/gluon/packages/dal/pydal/objects.py", line 121, in as_dict\n    d[k] = v.as_dict()\n  File "/media/onzalo/datos/web2py/gluon/packages/dal/pydal/objects.py", line 121, in as_dict\n    d[k] = v.as_dict()\n  File "/media/onzalo/datos/web2py/gluon/packages/dal/pydal/objects.py", line 121, in as_dict\n    d[k] = v.as_dict()\n  File "/media/onzalo/datos/web2py/gluon/packages/dal/pydal/objects.py", line 121, in as_dict\n    d[k] = v.as_dict()\n  File "/media/onzalo/datos/web2py/gluon/packages/dal/pydal/objects.py", line 121, in as_dict\n    d[k] = v.as_dict()\n  File "/media/onzalo/datos/web2py/gluon/packages/dal/pydal/objects.py", line 121, in as_dict\n    d[k] = v.as_dict()\n  File "/media/onzalo/datos/web2py/gluon/packages/dal/pydal/objects.py", line 121, in as_dict\n    d[k] = v.as_dict()\n  File "/media/onzalo/datos/web2py/gluon/packages/dal/pydal/objects.py", line 121, in as_dict\n    d[k] = v.as_dict()\n  File "/media/onzalo/datos/web2py/gluon/packages/dal/pydal/objects.py", line 121, in as_dict\n    d[k] = v.as_dict()\n  File "/media/onzalo/datos/web2py/gluon/packages/dal/pydal/objects.py", line 121, in as_dict\n    d[k] = v.as_dict()\n  File "/media/onzalo/datos/web2py/gluon/packages/dal/pydal/objects.py", line 121, in as_dict\n    d[k] = v.as_dict()\n  File "/media/onzalo/datos/web2py/gluon/packages/dal/pydal/objects.py", line 121, in as_dict\n    d[k] = v.as_dict()\n  File "/media/onzalo/datos/web2py/gluon/packages/dal/pydal/objects.py", line 121, in as_dict\n    d[k] = v.as_dict()\n  File "/media/onzalo/datos/web2py/gluon/packages/dal/pydal/objects.py", line 121, in as_dict\n    d[k] = v.as_dict()\n  File "/media/onzalo/datos/web2py/gluon/packages/dal/pydal/objects.py", line 121, in as_dict\n    d[k] = v.as_dict()\n  File "/media/onzalo/datos/web2py/gluon/packages/dal/pydal/objects.py", line 121, in as_dict\n    d[k] = v.as_dict()\n  File "/media/onzalo/datos/web2py/gluon/packages/dal/pydal/objects.py", line 121, in as_dict\n    d[k] = v.as_dict()\n  File "/media/onzalo/datos/web2py/gluon/packages/dal/pydal/objects.py", line 121, in as_dict\n    d[k] = v.as_dict()\n  File "/media/onzalo/datos/web2py/gluon/packages/dal/pydal/objects.py", line 121, in as_dict\n    d[k] = v.as_dict()\n  File "/media/onzalo/datos/web2py/gluon/packages/dal/pydal/objects.py", line 121, in as_dict\n    d[k] = v.as_dict()\n  File "/media/onzalo/datos/web2py/gluon/packages/dal/pydal/objects.py", line 121, in as_dict\n    d[k] = v.as_dict()\n  File "/media/onzalo/datos/web2py/gluon/packages/dal/pydal/objects.py", line 121, in as_dict\n    d[k] = v.as_dict()\n  File "/media/onzalo/datos/web2py/gluon/packages/dal/pydal/objects.py", line 121, in as_dict\n    d[k] = v.as_dict()\n  File "/media/onzalo/datos/web2py/gluon/packages/dal/pydal/objects.py", line 121, in as_dict\n    d[k] = v.as_dict()\n  File "/media/onzalo/datos/web2py/gluon/packages/dal/pydal/objects.py", line 121, in as_dict\n    d[k] = v.as_dict()\n  File "/media/onzalo/datos/web2py/gluon/packages/dal/pydal/objects.py", line 121, in as_dict\n    d[k] = v.as_dict()\n  File "/media/onzalo/datos/web2py/gluon/packages/dal/pydal/objects.py", line 121, in as_dict\n    d[k] = v.as_dict()\n  File "/media/onzalo/datos/web2py/gluon/packages/dal/pydal/objects.py", line 121, in as_dict\n    d[k] = v.as_dict()\n  File "/media/onzalo/datos/web2py/gluon/packages/dal/pydal/objects.py", line 121, in as_dict\n    d[k] = v.as_dict()\n  File "/media/onzalo/datos/web2py/gluon/packages/dal/pydal/objects.py", line 121, in as_dict\n    d[k] = v.as_dict()\n  File "/media/onzalo/datos/web2py/gluon/packages/dal/pydal/objects.py", line 121, in as_dict\n    d[k] = v.as_dict()\n  File "/media/onzalo/datos/web2py/gluon/packages/dal/pydal/objects.py", line 121, in as_dict\n    d[k] = v.as_dict()\n  File "/media/onzalo/datos/web2py/gluon/packages/dal/pydal/objects.py", line 121, in as_dict\n    d[k] = v.as_dict()\n  File "/media/onzalo/datos/web2py/gluon/packages/dal/pydal/objects.py", line 121, in as_dict\n    d[k] = v.as_dict()\n  File "/media/onzalo/datos/web2py/gluon/packages/dal/pydal/objects.py", line 121, in as_dict\n    d[k] = v.as_dict()\n  File "/media/onzalo/datos/web2py/gluon/packages/dal/pydal/objects.py", line 121, in as_dict\n    d[k] = v.as_dict()\n  File "/media/onzalo/datos/web2py/gluon/packages/dal/pydal/objects.py", line 121, in as_dict\n    d[k] = v.as_dict()\n  File "/media/onzalo/datos/web2py/gluon/packages/dal/pydal/objects.py", line 121, in as_dict\n    d[k] = v.as_dict()\n  File "/media/onzalo/datos/web2py/gluon/packages/dal/pydal/objects.py", line 121, in as_dict\n    d[k] = v.as_dict()\n  File "/media/onzalo/datos/web2py/gluon/packages/dal/pydal/objects.py", line 121, in as_dict\n    d[k] = v.as_dict()\n  File "/media/onzalo/datos/web2py/gluon/packages/dal/pydal/objects.py", line 121, in as_dict\n    d[k] = v.as_dict()\n  File "/media/onzalo/datos/web2py/gluon/packages/dal/pydal/objects.py", line 121, in as_dict\n    d[k] = v.as_dict()\n  File "/media/onzalo/datos/web2py/gluon/packages/dal/pydal/objects.py", line 121, in as_dict\n    d[k] = v.as_dict()\n  File "/media/onzalo/datos/web2py/gluon/packages/dal/pydal/objects.py", line 121, in as_dict\n    d[k] = v.as_dict()\n  File "/media/onzalo/datos/web2py/gluon/packages/dal/pydal/objects.py", line 121, in as_dict\n    d[k] = v.as_dict()\n  File "/media/onzalo/datos/web2py/gluon/packages/dal/pydal/objects.py", line 121, in as_dict\n    d[k] = v.as_dict()\n  File "/media/onzalo/datos/web2py/gluon/packages/dal/pydal/objects.py", line 121, in as_dict\n    d[k] = v.as_dict()\n  File "/media/onzalo/datos/web2py/gluon/packages/dal/pydal/objects.py", line 121, in as_dict\n    d[k] = v.as_dict()\n  File "/media/onzalo/datos/web2py/gluon/packages/dal/pydal/objects.py", line 121, in as_dict\n    d[k] = v.as_dict()\n  File "/media/onzalo/datos/web2py/gluon/packages/dal/pydal/objects.py", line 121, in as_dict\n    d[k] = v.as_dict()\n  File "/media/onzalo/datos/web2py/gluon/packages/dal/pydal/objects.py", line 121, in as_dict\n    d[k] = v.as_dict()\n  File "/media/onzalo/datos/web2py/gluon/packages/dal/pydal/objects.py", line 121, in as_dict\n    d[k] = v.as_dict()\n  File "/media/onzalo/datos/web2py/gluon/packages/dal/pydal/objects.py", line 121, in as_dict\n    d[k] = v.as_dict()\n  File "/media/onzalo/datos/web2py/gluon/packages/dal/pydal/objects.py", line 121, in as_dict\n    d[k] = v.as_dict()\n  File "/media/onzalo/datos/web2py/gluon/packages/dal/pydal/objects.py", line 121, in as_dict\n    d[k] = v.as_dict()\n  File "/media/onzalo/datos/web2py/gluon/packages/dal/pydal/objects.py", line 121, in as_dict\n    d[k] = v.as_dict()\n  File "/media/onzalo/datos/web2py/gluon/packages/dal/pydal/objects.py", line 121, in as_dict\n    d[k] = v.as_dict()\n  File "/media/onzalo/datos/web2py/gluon/packages/dal/pydal/objects.py", line 121, in as_dict\n    d[k] = v.as_dict()\n  File "/media/onzalo/datos/web2py/gluon/packages/dal/pydal/objects.py", line 121, in as_dict\n    d[k] = v.as_dict()\n  File "/media/onzalo/datos/web2py/gluon/packages/dal/pydal/objects.py", line 121, in as_dict\n    d[k] = v.as_dict()\n  File "/media/onzalo/datos/web2py/gluon/packages/dal/pydal/objects.py", line 121, in as_dict\n    d[k] = v.as_dict()\n  File "/media/onzalo/datos/web2py/gluon/packages/dal/pydal/objects.py", line 121, in as_dict\n    d[k] = v.as_dict()\n  File "/media/onzalo/datos/web2py/gluon/packages/dal/pydal/objects.py", line 121, in as_dict\n    d[k] = v.as_dict()\n  File "/media/onzalo/datos/web2py/gluon/packages/dal/pydal/objects.py", line 121, in as_dict\n    d[k] = v.as_dict()\n  File "/media/onzalo/datos/web2py/gluon/packages/dal/pydal/objects.py", line 121, in as_dict\n    d[k] = v.as_dict()\n  File "/media/onzalo/datos/web2py/gluon/packages/dal/pydal/objects.py", line 121, in as_dict\n    d[k] = v.as_dict()\n  File "/media/onzalo/datos/web2py/gluon/packages/dal/pydal/objects.py", line 121, in as_dict\n    d[k] = v.as_dict()\n  File "/media/onzalo/datos/web2py/gluon/packages/dal/pydal/objects.py", line 121, in as_dict\n    d[k] = v.as_dict()\n  File "/media/onzalo/datos/web2py/gluon/packages/dal/pydal/objects.py", line 121, in as_dict\n    d[k] = v.as_dict()\n  File "/media/onzalo/datos/web2py/gluon/packages/dal/pydal/objects.py", line 121, in as_dict\n    d[k] = v.as_dict()\n  File "/media/onzalo/datos/web2py/gluon/packages/dal/pydal/objects.py", line 121, in as_dict\n    d[k] = v.as_dict()\n  File "/media/onzalo/datos/web2py/gluon/packages/dal/pydal/objects.py", line 121, in as_dict\n    d[k] = v.as_dict()\n  File "/media/onzalo/datos/web2py/gluon/packages/dal/pydal/objects.py", line 121, in as_dict\n    d[k] = v.as_dict()\n  File "/media/onzalo/datos/web2py/gluon/packages/dal/pydal/objects.py", line 121, in as_dict\n    d[k] = v.as_dict()\n  File "/media/onzalo/datos/web2py/gluon/packages/dal/pydal/objects.py", line 121, in as_dict\n    d[k] = v.as_dict()\n  File "/media/onzalo/datos/web2py/gluon/packages/dal/pydal/objects.py", line 121, in as_dict\n    d[k] = v.as_dict()\n  File "/media/onzalo/datos/web2py/gluon/packages/dal/pydal/objects.py", line 121, in as_dict\n    d[k] = v.as_dict()\n  File "/media/onzalo/datos/web2py/gluon/packages/dal/pydal/objects.py", line 121, in as_dict\n    d[k] = v.as_dict()\n  File "/media/onzalo/datos/web2py/gluon/packages/dal/pydal/objects.py", line 121, in as_dict\n    d[k] = v.as_dict()\n  File "/media/onzalo/datos/web2py/gluon/packages/dal/pydal/objects.py", line 121, in as_dict\n    d[k] = v.as_dict()\n  File "/media/onzalo/datos/web2py/gluon/packages/dal/pydal/objects.py", line 121, in as_dict\n    d[k] = v.as_dict()\n  File "/media/onzalo/datos/web2py/gluon/packages/dal/pydal/objects.py", line 121, in as_dict\n    d[k] = v.as_dict()\n  File "/media/onzalo/datos/web2py/gluon/packages/dal/pydal/objects.py", line 121, in as_dict\n    d[k] = v.as_dict()\n  File "/media/onzalo/datos/web2py/gluon/packages/dal/pydal/objects.py", line 121, in as_dict\n    d[k] = v.as_dict()\n  File "/media/onzalo/datos/web2py/gluon/packages/dal/pydal/objects.py", line 121, in as_dict\n    d[k] = v.as_dict()\n  File "/media/onzalo/datos/web2py/gluon/packages/dal/pydal/objects.py", line 121, in as_dict\n    d[k] = v.as_dict()\n  File "/media/onzalo/datos/web2py/gluon/packages/dal/pydal/objects.py", line 121, in as_dict\n    d[k] = v.as_dict()\n  File "/media/onzalo/datos/web2py/gluon/packages/dal/pydal/objects.py", line 121, in as_dict\n    d[k] = v.as_dict()\n  File "/media/onzalo/datos/web2py/gluon/packages/dal/pydal/objects.py", line 121, in as_dict\n    d[k] = v.as_dict()\n  File "/media/onzalo/datos/web2py/gluon/packages/dal/pydal/objects.py", line 121, in as_dict\n    d[k] = v.as_dict()\n  File "/media/onzalo/datos/web2py/gluon/packages/dal/pydal/objects.py", line 121, in as_dict\n    d[k] = v.as_dict()\n  File "/media/onzalo/datos/web2py/gluon/packages/dal/pydal/objects.py", line 121, in as_dict\n    d[k] = v.as_dict()\n  File "/media/onzalo/datos/web2py/gluon/packages/dal/pydal/objects.py", line 121, in as_dict\n    d[k] = v.as_dict()\n  File "/media/onzalo/datos/web2py/gluon/packages/dal/pydal/objects.py", line 121, in as_dict\n    d[k] = v.as_dict()\n  File "/media/onzalo/datos/web2py/gluon/packages/dal/pydal/objects.py", line 121, in as_dict\n    d[k] = v.as_dict()\n  File "/media/onzalo/datos/web2py/gluon/packages/dal/pydal/objects.py", line 121, in as_dict\n    d[k] = v.as_dict()\n  File "/media/onzalo/datos/web2py/gluon/packages/dal/pydal/objects.py", line 121, in as_dict\n    d[k] = v.as_dict()\n  File "/media/onzalo/datos/web2py/gluon/packages/dal/pydal/objects.py", line 121, in as_dict\n    d[k] = v.as_dict()\n  File "/media/onzalo/datos/web2py/gluon/packages/dal/pydal/objects.py", line 121, in as_dict\n    d[k] = v.as_dict()\n  File "/media/onzalo/datos/web2py/gluon/packages/dal/pydal/objects.py", line 121, in as_dict\n    d[k] = v.as_dict()\n  File "/media/onzalo/datos/web2py/gluon/packages/dal/pydal/objects.py", line 121, in as_dict\n    d[k] = v.as_dict()\n  File "/media/onzalo/datos/web2py/gluon/packages/dal/pydal/objects.py", line 121, in as_dict\n    d[k] = v.as_dict()\n  File "/media/onzalo/datos/web2py/gluon/packages/dal/pydal/objects.py", line 121, in as_dict\n    d[k] = v.as_dict()\n  File "/media/onzalo/datos/web2py/gluon/packages/dal/pydal/objects.py", line 121, in as_dict\n    d[k] = v.as_dict()\n  File "/media/onzalo/datos/web2py/gluon/packages/dal/pydal/objects.py", line 121, in as_dict\n    d[k] = v.as_dict()\n  File "/media/onzalo/datos/web2py/gluon/packages/dal/pydal/objects.py", line 121, in as_dict\n    d[k] = v.as_dict()\n  File "/media/onzalo/datos/web2py/gluon/packages/dal/pydal/objects.py", line 121, in as_dict\n    d[k] = v.as_dict()\n  File "/media/onzalo/datos/web2py/gluon/packages/dal/pydal/objects.py", line 121, in as_dict\n    d[k] = v.as_dict()\n  File "/media/onzalo/datos/web2py/gluon/packages/dal/pydal/objects.py", line 121, in as_dict\n    d[k] = v.as_dict()\n  File "/media/onzalo/datos/web2py/gluon/packages/dal/pydal/objects.py", line 121, in as_dict\n    d[k] = v.as_dict()\n  File "/media/onzalo/datos/web2py/gluon/packages/dal/pydal/objects.py", line 121, in as_dict\n    d[k] = v.as_dict()\n  File "/media/onzalo/datos/web2py/gluon/packages/dal/pydal/objects.py", line 121, in as_dict\n    d[k] = v.as_dict()\n  File "/media/onzalo/datos/web2py/gluon/packages/dal/pydal/objects.py", line 121, in as_dict\n    d[k] = v.as_dict()\n  File "/media/onzalo/datos/web2py/gluon/packages/dal/pydal/objects.py", line 121, in as_dict\n    d[k] = v.as_dict()\n  File "/media/onzalo/datos/web2py/gluon/packages/dal/pydal/objects.py", line 121, in as_dict\n    d[k] = v.as_dict()\n  File "/media/onzalo/datos/web2py/gluon/packages/dal/pydal/objects.py", line 121, in as_dict\n    d[k] = v.as_dict()\n  File "/media/onzalo/datos/web2py/gluon/packages/dal/pydal/objects.py", line 121, in as_dict\n    d[k] = v.as_dict()\n  File "/media/onzalo/datos/web2py/gluon/packages/dal/pydal/objects.py", line 121, in as_dict\n    d[k] = v.as_dict()\n  File "/media/onzalo/datos/web2py/gluon/packages/dal/pydal/objects.py", line 121, in as_dict\n    d[k] = v.as_dict()\n  File "/media/onzalo/datos/web2py/gluon/packages/dal/pydal/objects.py", line 121, in as_dict\n    d[k] = v.as_dict()\n  File "/media/onzalo/datos/web2py/gluon/packages/dal/pydal/objects.py", line 121, in as_dict\n    d[k] = v.as_dict()\n  File "/media/onzalo/datos/web2py/gluon/packages/dal/pydal/objects.py", line 121, in as_dict\n    d[k] = v.as_dict()\n  File "/media/onzalo/datos/web2py/gluon/packages/dal/pydal/objects.py", line 121, in as_dict\n    d[k] = v.as_dict()\n  File "/media/onzalo/datos/web2py/gluon/packages/dal/pydal/objects.py", line 121, in as_dict\n    d[k] = v.as_dict()\n  File "/media/onzalo/datos/web2py/gluon/packages/dal/pydal/objects.py", line 121, in as_dict\n    d[k] = v.as_dict()\n  File "/media/onzalo/datos/web2py/gluon/packages/dal/pydal/objects.py", line 121, in as_dict\n    d[k] = v.as_dict()\n  File "/media/onzalo/datos/web2py/gluon/packages/dal/pydal/objects.py", line 121, in as_dict\n    d[k] = v.as_dict()\n  File "/media/onzalo/datos/web2py/gluon/packages/dal/pydal/objects.py", line 121, in as_dict\n    d[k] = v.as_dict()\n  File "/media/onzalo/datos/web2py/gluon/packages/dal/pydal/objects.py", line 121, in as_dict\n    d[k] = v.as_dict()\n  File "/media/onzalo/datos/web2py/gluon/packages/dal/pydal/objects.py", line 121, in as_dict\n    d[k] = v.as_dict()\n  File "/media/onzalo/datos/web2py/gluon/packages/dal/pydal/objects.py", line 121, in as_dict\n    d[k] = v.as_dict()\n  File "/media/onzalo/datos/web2py/gluon/packages/dal/pydal/objects.py", line 121, in as_dict\n    d[k] = v.as_dict()\n  File "/media/onzalo/datos/web2py/gluon/packages/dal/pydal/objects.py", line 121, in as_dict\n    d[k] = v.as_dict()\n  File "/media/onzalo/datos/web2py/gluon/packages/dal/pydal/objects.py", line 121, in as_dict\n    d[k] = v.as_dict()\n  File "/media/onzalo/datos/web2py/gluon/packages/dal/pydal/objects.py", line 121, in as_dict\n    d[k] = v.as_dict()\n  File "/media/onzalo/datos/web2py/gluon/packages/dal/pydal/objects.py", line 121, in as_dict\n    d[k] = v.as_dict()\n  File "/media/onzalo/datos/web2py/gluon/packages/dal/pydal/objects.py", line 121, in as_dict\n    d[k] = v.as_dict()\n  File "/media/onzalo/datos/web2py/gluon/packages/dal/pydal/objects.py", line 121, in as_dict\n    d[k] = v.as_dict()\n  File "/media/onzalo/datos/web2py/gluon/packages/dal/pydal/objects.py", line 121, in as_dict\n    d[k] = v.as_dict()\n  File "/media/onzalo/datos/web2py/gluon/packages/dal/pydal/objects.py", line 121, in as_dict\n    d[k] = v.as_dict()\n  File "/media/onzalo/datos/web2py/gluon/packages/dal/pydal/objects.py", line 121, in as_dict\n    d[k] = v.as_dict()\n  File "/media/onzalo/datos/web2py/gluon/packages/dal/pydal/objects.py", line 121, in as_dict\n    d[k] = v.as_dict()\n  File "/media/onzalo/datos/web2py/gluon/packages/dal/pydal/objects.py", line 121, in as_dict\n    d[k] = v.as_dict()\n  File "/media/onzalo/datos/web2py/gluon/packages/dal/pydal/objects.py", line 121, in as_dict\n    d[k] = v.as_dict()\n  File "/media/onzalo/datos/web2py/gluon/packages/dal/pydal/objects.py", line 121, in as_dict\n    d[k] = v.as_dict()\n  File "/media/onzalo/datos/web2py/gluon/packages/dal/pydal/objects.py", line 121, in as_dict\n    d[k] = v.as_dict()\n  File "/media/onzalo/datos/web2py/gluon/packages/dal/pydal/objects.py", line 121, in as_dict\n    d[k] = v.as_dict()\n  File "/media/onzalo/datos/web2py/gluon/packages/dal/pydal/objects.py", line 121, in as_dict\n    d[k] = v.as_dict()\n  File "/media/onzalo/datos/web2py/gluon/packages/dal/pydal/objects.py", line 121, in as_dict\n    d[k] = v.as_dict()\n  File "/media/onzalo/datos/web2py/gluon/packages/dal/pydal/objects.py", line 121, in as_dict\n    d[k] = v.as_dict()\n  File "/media/onzalo/datos/web2py/gluon/packages/dal/pydal/objects.py", line 121, in as_dict\n    d[k] = v.as_dict()\n  File "/media/onzalo/datos/web2py/gluon/packages/dal/pydal/objects.py", line 121, in as_dict\n    d[k] = v.as_dict()\n  File "/media/onzalo/datos/web2py/gluon/packages/dal/pydal/objects.py", line 121, in as_dict\n    d[k] = v.as_dict()\n  File "/media/onzalo/datos/web2py/gluon/packages/dal/pydal/objects.py", line 121, in as_dict\n    d[k] = v.as_dict()\n  File "/media/onzalo/datos/web2py/gluon/packages/dal/pydal/objects.py", line 121, in as_dict\n    d[k] = v.as_dict()\n  File "/media/onzalo/datos/web2py/gluon/packages/dal/pydal/objects.py", line 121, in as_dict\n    d[k] = v.as_dict()\n  File "/media/onzalo/datos/web2py/gluon/packages/dal/pydal/objects.py", line 121, in as_dict\n    d[k] = v.as_dict()\n  File "/media/onzalo/datos/web2py/gluon/packages/dal/pydal/objects.py", line 121, in as_dict\n    d[k] = v.as_dict()\n  File "/media/onzalo/datos/web2py/gluon/packages/dal/pydal/objects.py", line 121, in as_dict\n    d[k] = v.as_dict()\n  File "/media/onzalo/datos/web2py/gluon/packages/dal/pydal/objects.py", line 121, in as_dict\n    d[k] = v.as_dict()\n  File "/media/onzalo/datos/web2py/gluon/packages/dal/pydal/objects.py", line 121, in as_dict\n    d[k] = v.as_dict()\n  File "/media/onzalo/datos/web2py/gluon/packages/dal/pydal/objects.py", line 121, in as_dict\n    d[k] = v.as_dict()\n  File "/media/onzalo/datos/web2py/gluon/packages/dal/pydal/objects.py", line 121, in as_dict\n    d[k] = v.as_dict()\n  File "/media/onzalo/datos/web2py/gluon/packages/dal/pydal/objects.py", line 121, in as_dict\n    d[k] = v.as_dict()\n  File "/media/onzalo/datos/web2py/gluon/packages/dal/pydal/objects.py", line 121, in as_dict\n    d[k] = v.as_dict()\n  File "/media/onzalo/datos/web2py/gluon/packages/dal/pydal/objects.py", line 121, in as_dict\n    d[k] = v.as_dict()\n  File "/media/onzalo/datos/web2py/gluon/packages/dal/pydal/objects.py", line 121, in as_dict\n    d[k] = v.as_dict()\n  File "/media/onzalo/datos/web2py/gluon/packages/dal/pydal/objects.py", line 121, in as_dict\n    d[k] = v.as_dict()\n  File "/media/onzalo/datos/web2py/gluon/packages/dal/pydal/objects.py", line 121, in as_dict\n    d[k] = v.as_dict()\n  File "/media/onzalo/datos/web2py/gluon/packages/dal/pydal/objects.py", line 121, in as_dict\n    d[k] = v.as_dict()\n  File "/media/onzalo/datos/web2py/gluon/packages/dal/pydal/objects.py", line 121, in as_dict\n    d[k] = v.as_dict()\n  File "/media/onzalo/datos/web2py/gluon/packages/dal/pydal/objects.py", line 121, in as_dict\n    d[k] = v.as_dict()\n  File "/media/onzalo/datos/web2py/gluon/packages/dal/pydal/objects.py", line 121, in as_dict\n    d[k] = v.as_dict()\n  File "/media/onzalo/datos/web2py/gluon/packages/dal/pydal/objects.py", line 121, in as_dict\n    d[k] = v.as_dict()\n  File "/media/onzalo/datos/web2py/gluon/packages/dal/pydal/objects.py", line 121, in as_dict\n    d[k] = v.as_dict()\n  File "/media/onzalo/datos/web2py/gluon/packages/dal/pydal/objects.py", line 121, in as_dict\n    d[k] = v.as_dict()\n  File "/media/onzalo/datos/web2py/gluon/packages/dal/pydal/objects.py", line 121, in as_dict\n    d[k] = v.as_dict()\n  File "/media/onzalo/datos/web2py/gluon/packages/dal/pydal/objects.py", line 121, in as_dict\n    d[k] = v.as_dict()\n  File "/media/onzalo/datos/web2py/gluon/packages/dal/pydal/objects.py", line 121, in as_dict\n    d[k] = v.as_dict()\n  File "/media/onzalo/datos/web2py/gluon/packages/dal/pydal/objects.py", line 121, in as_dict\n    d[k] = v.as_dict()\n  File "/media/onzalo/datos/web2py/gluon/packages/dal/pydal/objects.py", line 121, in as_dict\n    d[k] = v.as_dict()\n  File "/media/onzalo/datos/web2py/gluon/packages/dal/pydal/objects.py", line 121, in as_dict\n    d[k] = v.as_dict()\n  File "/media/onzalo/datos/web2py/gluon/packages/dal/pydal/objects.py", line 121, in as_dict\n    d[k] = v.as_dict()\n  File "/media/onzalo/datos/web2py/gluon/packages/dal/pydal/objects.py", line 121, in as_dict\n    d[k] = v.as_dict()\n  File "/media/onzalo/datos/web2py/gluon/packages/dal/pydal/objects.py", line 121, in as_dict\n    d[k] = v.as_dict()\n  File "/media/onzalo/datos/web2py/gluon/packages/dal/pydal/objects.py", line 121, in as_dict\n    d[k] = v.as_dict()\n  File "/media/onzalo/datos/web2py/gluon/packages/dal/pydal/objects.py", line 121, in as_dict\n    d[k] = v.as_dict()\n  File "/media/onzalo/datos/web2py/gluon/packages/dal/pydal/objects.py", line 121, in as_dict\n    d[k] = v.as_dict()\n  File "/media/onzalo/datos/web2py/gluon/packages/dal/pydal/objects.py", line 121, in as_dict\n    d[k] = v.as_dict()\n  File "/media/onzalo/datos/web2py/gluon/packages/dal/pydal/objects.py", line 121, in as_dict\n    d[k] = v.as_dict()\n  File "/media/onzalo/datos/web2py/gluon/packages/dal/pydal/objects.py", line 121, in as_dict\n    d[k] = v.as_dict()\n  File "/media/onzalo/datos/web2py/gluon/packages/dal/pydal/objects.py", line 121, in as_dict\n    d[k] = v.as_dict()\n  File "/media/onzalo/datos/web2py/gluon/packages/dal/pydal/objects.py", line 121, in as_dict\n    d[k] = v.as_dict()\n  File "/media/onzalo/datos/web2py/gluon/packages/dal/pydal/objects.py", line 121, in as_dict\n    d[k] = v.as_dict()\n  File "/media/onzalo/datos/web2py/gluon/packages/dal/pydal/objects.py", line 121, in as_dict\n    d[k] = v.as_dict()\n  File "/media/onzalo/datos/web2py/gluon/packages/dal/pydal/objects.py", line 121, in as_dict\n    d[k] = v.as_dict()\n  File "/media/onzalo/datos/web2py/gluon/packages/dal/pydal/objects.py", line 121, in as_dict\n    d[k] = v.as_dict()\n  File "/media/onzalo/datos/web2py/gluon/packages/dal/pydal/objects.py", line 121, in as_dict\n    d[k] = v.as_dict()\n  File "/media/onzalo/datos/web2py/gluon/packages/dal/pydal/objects.py", line 121, in as_dict\n    d[k] = v.as_dict()\n  File "/media/onzalo/datos/web2py/gluon/packages/dal/pydal/objects.py", line 121, in as_dict\n    d[k] = v.as_dict()\n  File "/media/onzalo/datos/web2py/gluon/packages/dal/pydal/objects.py", line 121, in as_dict\n    d[k] = v.as_dict()\n  File "/media/onzalo/datos/web2py/gluon/packages/dal/pydal/objects.py", line 121, in as_dict\n    d[k] = v.as_dict()\n  File "/media/onzalo/datos/web2py/gluon/packages/dal/pydal/objects.py", line 121, in as_dict\n    d[k] = v.as_dict()\n  File "/media/onzalo/datos/web2py/gluon/packages/dal/pydal/objects.py", line 121, in as_dict\n    d[k] = v.as_dict()\n  File "/media/onzalo/datos/web2py/gluon/packages/dal/pydal/objects.py", line 121, in as_dict\n    d[k] = v.as_dict()\n  File "/media/onzalo/datos/web2py/gluon/packages/dal/pydal/objects.py", line 121, in as_dict\n    d[k] = v.as_dict()\n  File "/media/onzalo/datos/web2py/gluon/packages/dal/pydal/objects.py", line 121, in as_dict\n    d[k] = v.as_dict()\n  File "/media/onzalo/datos/web2py/gluon/packages/dal/pydal/objects.py", line 121, in as_dict\n    d[k] = v.as_dict()\n  File "/media/onzalo/datos/web2py/gluon/packages/dal/pydal/objects.py", line 121, in as_dict\n    d[k] = v.as_dict()\n  File "/media/onzalo/datos/web2py/gluon/packages/dal/pydal/objects.py", line 121, in as_dict\n    d[k] = v.as_dict()\n  File "/media/onzalo/datos/web2py/gluon/packages/dal/pydal/objects.py", line 121, in as_dict\n    d[k] = v.as_dict()\n  File "/media/onzalo/datos/web2py/gluon/packages/dal/pydal/objects.py", line 121, in as_dict\n    d[k] = v.as_dict()\n  File "/media/onzalo/datos/web2py/gluon/packages/dal/pydal/objects.py", line 121, in as_dict\n    d[k] = v.as_dict()\n  File "/media/onzalo/datos/web2py/gluon/packages/dal/pydal/objects.py", line 121, in as_dict\n    d[k] = v.as_dict()\n  File "/media/onzalo/datos/web2py/gluon/packages/dal/pydal/objects.py", line 121, in as_dict\n    d[k] = v.as_dict()\n  File "/media/onzalo/datos/web2py/gluon/packages/dal/pydal/objects.py", line 121, in as_dict\n    d[k] = v.as_dict()\n  File "/media/onzalo/datos/web2py/gluon/packages/dal/pydal/objects.py", line 121, in as_dict\n    d[k] = v.as_dict()\n  File "/media/onzalo/datos/web2py/gluon/packages/dal/pydal/objects.py", line 121, in as_dict\n    d[k] = v.as_dict()\n  File "/media/onzalo/datos/web2py/gluon/packages/dal/pydal/objects.py", line 121, in as_dict\n    d[k] = v.as_dict()\n  File "/media/onzalo/datos/web2py/gluon/packages/dal/pydal/objects.py", line 121, in as_dict\n    d[k] = v.as_dict()\n  File "/media/onzalo/datos/web2py/gluon/packages/dal/pydal/objects.py", line 121, in as_dict\n    d[k] = v.as_dict()\n  File "/media/onzalo/datos/web2py/gluon/packages/dal/pydal/objects.py", line 121, in as_dict\n    d[k] = v.as_dict()\n  File "/media/onzalo/datos/web2py/gluon/packages/dal/pydal/objects.py", line 121, in as_dict\n    d[k] = v.as_dict()\n  File "/media/onzalo/datos/web2py/gluon/packages/dal/pydal/objects.py", line 121, in as_dict\n    d[k] = v.as_dict()\n  File "/media/onzalo/datos/web2py/gluon/packages/dal/pydal/objects.py", line 121, in as_dict\n    d[k] = v.as_dict()\n  File "/media/onzalo/datos/web2py/gluon/packages/dal/pydal/objects.py", line 121, in as_dict\n    d[k] = v.as_dict()\n  File "/media/onzalo/datos/web2py/gluon/packages/dal/pydal/objects.py", line 121, in as_dict\n    d[k] = v.as_dict()\n  File "/media/onzalo/datos/web2py/gluon/packages/dal/pydal/objects.py", line 121, in as_dict\n    d[k] = v.as_dict()\n  File "/media/onzalo/datos/web2py/gluon/packages/dal/pydal/objects.py", line 121, in as_dict\n    d[k] = v.as_dict()\n  File "/media/onzalo/datos/web2py/gluon/packages/dal/pydal/objects.py", line 121, in as_dict\n    d[k] = v.as_dict()\n  File "/media/onzalo/datos/web2py/gluon/packages/dal/pydal/objects.py", line 121, in as_dict\n    d[k] = v.as_dict()\n  File "/media/onzalo/datos/web2py/gluon/packages/dal/pydal/objects.py", line 121, in as_dict\n    d[k] = v.as_dict()\n  File "/media/onzalo/datos/web2py/gluon/packages/dal/pydal/objects.py", line 121, in as_dict\n    d[k] = v.as_dict()\n  File "/media/onzalo/datos/web2py/gluon/packages/dal/pydal/objects.py", line 121, in as_dict\n    d[k] = v.as_dict()\n  File "/media/onzalo/datos/web2py/gluon/packages/dal/pydal/objects.py", line 121, in as_dict\n    d[k] = v.as_dict()\n  File "/media/onzalo/datos/web2py/gluon/packages/dal/pydal/objects.py", line 121, in as_dict\n    d[k] = v.as_dict()\n  File "/media/onzalo/datos/web2py/gluon/packages/dal/pydal/objects.py", line 121, in as_dict\n    d[k] = v.as_dict()\n  File "/media/onzalo/datos/web2py/gluon/packages/dal/pydal/objects.py", line 121, in as_dict\n    d[k] = v.as_dict()\n  File "/media/onzalo/datos/web2py/gluon/packages/dal/pydal/objects.py", line 121, in as_dict\n    d[k] = v.as_dict()\n  File "/media/onzalo/datos/web2py/gluon/packages/dal/pydal/objects.py", line 121, in as_dict\n    d[k] = v.as_dict()\n  File "/media/onzalo/datos/web2py/gluon/packages/dal/pydal/objects.py", line 121, in as_dict\n    d[k] = v.as_dict()\n  File "/media/onzalo/datos/web2py/gluon/packages/dal/pydal/objects.py", line 121, in as_dict\n    d[k] = v.as_dict()\n  File "/media/onzalo/datos/web2py/gluon/packages/dal/pydal/objects.py", line 121, in as_dict\n    d[k] = v.as_dict()\n  File "/media/onzalo/datos/web2py/gluon/packages/dal/pydal/objects.py", line 121, in as_dict\n    d[k] = v.as_dict()\n  File "/media/onzalo/datos/web2py/gluon/packages/dal/pydal/objects.py", line 121, in as_dict\n    d[k] = v.as_dict()\n  File "/media/onzalo/datos/web2py/gluon/packages/dal/pydal/objects.py", line 121, in as_dict\n    d[k] = v.as_dict()\n  File "/media/onzalo/datos/web2py/gluon/packages/dal/pydal/objects.py", line 121, in as_dict\n    d[k] = v.as_dict()\n  File "/media/onzalo/datos/web2py/gluon/packages/dal/pydal/objects.py", line 121, in as_dict\n    d[k] = v.as_dict()\n  File "/media/onzalo/datos/web2py/gluon/packages/dal/pydal/objects.py", line 121, in as_dict\n    d[k] = v.as_dict()\n  File "/media/onzalo/datos/web2py/gluon/packages/dal/pydal/objects.py", line 121, in as_dict\n    d[k] = v.as_dict()\n  File "/media/onzalo/datos/web2py/gluon/packages/dal/pydal/objects.py", line 121, in as_dict\n    d[k] = v.as_dict()\n  File "/media/onzalo/datos/web2py/gluon/packages/dal/pydal/objects.py", line 121, in as_dict\n    d[k] = v.as_dict()\n  File "/media/onzalo/datos/web2py/gluon/packages/dal/pydal/objects.py", line 121, in as_dict\n    d[k] = v.as_dict()\n  File "/media/onzalo/datos/web2py/gluon/packages/dal/pydal/objects.py", line 121, in as_dict\n    d[k] = v.as_dict()\n  File "/media/onzalo/datos/web2py/gluon/packages/dal/pydal/objects.py", line 121, in as_dict\n    d[k] = v.as_dict()\n  File "/media/onzalo/datos/web2py/gluon/packages/dal/pydal/objects.py", line 121, in as_dict\n    d[k] = v.as_dict()\n  File "/media/onzalo/datos/web2py/gluon/packages/dal/pydal/objects.py", line 121, in as_dict\n    d[k] = v.as_dict()\n  File "/media/onzalo/datos/web2py/gluon/packages/dal/pydal/objects.py", line 121, in as_dict\n    d[k] = v.as_dict()\n  File "/media/onzalo/datos/web2py/gluon/packages/dal/pydal/objects.py", line 121, in as_dict\n    d[k] = v.as_dict()\n  File "/media/onzalo/datos/web2py/gluon/packages/dal/pydal/objects.py", line 121, in as_dict\n    d[k] = v.as_dict()\n  File "/media/onzalo/datos/web2py/gluon/packages/dal/pydal/objects.py", line 121, in as_dict\n    d[k] = v.as_dict()\n  File "/media/onzalo/datos/web2py/gluon/packages/dal/pydal/objects.py", line 121, in as_dict\n    d[k] = v.as_dict()\n  File "/media/onzalo/datos/web2py/gluon/packages/dal/pydal/objects.py", line 121, in as_dict\n    d[k] = v.as_dict()\n  File "/media/onzalo/datos/web2py/gluon/packages/dal/pydal/objects.py", line 121, in as_dict\n    d[k] = v.as_dict()\n  File "/media/onzalo/datos/web2py/gluon/packages/dal/pydal/objects.py", line 121, in as_dict\n    d[k] = v.as_dict()\n  File "/media/onzalo/datos/web2py/gluon/packages/dal/pydal/objects.py", line 121, in as_dict\n    d[k] = v.as_dict()\n  File "/media/onzalo/datos/web2py/gluon/packages/dal/pydal/objects.py", line 121, in as_dict\n    d[k] = v.as_dict()\n  File "/media/onzalo/datos/web2py/gluon/packages/dal/pydal/objects.py", line 121, in as_dict\n    d[k] = v.as_dict()\n  File "/media/onzalo/datos/web2py/gluon/packages/dal/pydal/objects.py", line 121, in as_dict\n    d[k] = v.as_dict()\n  File "/media/onzalo/datos/web2py/gluon/packages/dal/pydal/objects.py", line 121, in as_dict\n    d[k] = v.as_dict()\n  File "/media/onzalo/datos/web2py/gluon/packages/dal/pydal/objects.py", line 121, in as_dict\n    d[k] = v.as_dict()\n  File "/media/onzalo/datos/web2py/gluon/packages/dal/pydal/objects.py", line 121, in as_dict\n    d[k] = v.as_dict()\n  File "/media/onzalo/datos/web2py/gluon/packages/dal/pydal/objects.py", line 121, in as_dict\n    d[k] = v.as_dict()\n  File "/media/onzalo/datos/web2py/gluon/packages/dal/pydal/objects.py", line 121, in as_dict\n    d[k] = v.as_dict()\n  File "/media/onzalo/datos/web2py/gluon/packages/dal/pydal/objects.py", line 121, in as_dict\n    d[k] = v.as_dict()\n  File "/media/onzalo/datos/web2py/gluon/packages/dal/pydal/objects.py", line 121, in as_dict\n    d[k] = v.as_dict()\n  File "/media/onzalo/datos/web2py/gluon/packages/dal/pydal/objects.py", line 121, in as_dict\n    d[k] = v.as_dict()\n  File "/media/onzalo/datos/web2py/gluon/packages/dal/pydal/objects.py", line 121, in as_dict\n    d[k] = v.as_dict()\n  File "/media/onzalo/datos/web2py/gluon/packages/dal/pydal/objects.py", line 121, in as_dict\n    d[k] = v.as_dict()\n  File "/media/onzalo/datos/web2py/gluon/packages/dal/pydal/objects.py", line 121, in as_dict\n    d[k] = v.as_dict()\n  File "/media/onzalo/datos/web2py/gluon/packages/dal/pydal/objects.py", line 121, in as_dict\n    d[k] = v.as_dict()\n  File "/media/onzalo/datos/web2py/gluon/packages/dal/pydal/objects.py", line 121, in as_dict\n    d[k] = v.as_dict()\n  File "/media/onzalo/datos/web2py/gluon/packages/dal/pydal/objects.py", line 121, in as_dict\n    d[k] = v.as_dict()\n  File "/media/onzalo/datos/web2py/gluon/packages/dal/pydal/objects.py", line 121, in as_dict\n    d[k] = v.as_dict()\n  File "/media/onzalo/datos/web2py/gluon/packages/dal/pydal/objects.py", line 121, in as_dict\n    d[k] = v.as_dict()\n  File "/media/onzalo/datos/web2py/gluon/packages/dal/pydal/objects.py", line 121, in as_dict\n    d[k] = v.as_dict()\n  File "/media/onzalo/datos/web2py/gluon/packages/dal/pydal/objects.py", line 121, in as_dict\n    d[k] = v.as_dict()\n  File "/media/onzalo/datos/web2py/gluon/packages/dal/pydal/objects.py", line 121, in as_dict\n    d[k] = v.as_dict()\n  File "/media/onzalo/datos/web2py/gluon/packages/dal/pydal/objects.py", line 121, in as_dict\n    d[k] = v.as_dict()\n  File "/media/onzalo/datos/web2py/gluon/packages/dal/pydal/objects.py", line 121, in as_dict\n    d[k] = v.as_dict()\n  File "/media/onzalo/datos/web2py/gluon/packages/dal/pydal/objects.py", line 121, in as_dict\n    d[k] = v.as_dict()\n  File "/media/onzalo/datos/web2py/gluon/packages/dal/pydal/objects.py", line 121, in as_dict\n    d[k] = v.as_dict()\n  File "/media/onzalo/datos/web2py/gluon/packages/dal/pydal/objects.py", line 121, in as_dict\n    d[k] = v.as_dict()\n  File "/media/onzalo/datos/web2py/gluon/packages/dal/pydal/objects.py", line 121, in as_dict\n    d[k] = v.as_dict()\n  File "/media/onzalo/datos/web2py/gluon/packages/dal/pydal/objects.py", line 121, in as_dict\n    d[k] = v.as_dict()\n  File "/media/onzalo/datos/web2py/gluon/packages/dal/pydal/objects.py", line 121, in as_dict\n    d[k] = v.as_dict()\n  File "/media/onzalo/datos/web2py/gluon/packages/dal/pydal/objects.py", line 121, in as_dict\n    d[k] = v.as_dict()\n  File "/media/onzalo/datos/web2py/gluon/packages/dal/pydal/objects.py", line 121, in as_dict\n    d[k] = v.as_dict()\n  File "/media/onzalo/datos/web2py/gluon/packages/dal/pydal/objects.py", line 121, in as_dict\n    d[k] = v.as_dict()\n  File "/media/onzalo/datos/web2py/gluon/packages/dal/pydal/objects.py", line 121, in as_dict\n    d[k] = v.as_dict()\n  File "/media/onzalo/datos/web2py/gluon/packages/dal/pydal/objects.py", line 121, in as_dict\n    d[k] = v.as_dict()\n  File "/media/onzalo/datos/web2py/gluon/packages/dal/pydal/objects.py", line 121, in as_dict\n    d[k] = v.as_dict()\n  File "/media/onzalo/datos/web2py/gluon/packages/dal/pydal/objects.py", line 121, in as_dict\n    d[k] = v.as_dict()\n  File "/media/onzalo/datos/web2py/gluon/packages/dal/pydal/objects.py", line 121, in as_dict\n    d[k] = v.as_dict()\n  File "/media/onzalo/datos/web2py/gluon/packages/dal/pydal/objects.py", line 121, in as_dict\n    d[k] = v.as_dict()\n  File "/media/onzalo/datos/web2py/gluon/packages/dal/pydal/objects.py", line 121, in as_dict\n    d[k] = v.as_dict()\n  File "/media/onzalo/datos/web2py/gluon/packages/dal/pydal/objects.py", line 121, in as_dict\n    d[k] = v.as_dict()\n  File "/media/onzalo/datos/web2py/gluon/packages/dal/pydal/objects.py", line 121, in as_dict\n    d[k] = v.as_dict()\n  File "/media/onzalo/datos/web2py/gluon/packages/dal/pydal/objects.py", line 121, in as_dict\n    d[k] = v.as_dict()\n  File "/media/onzalo/datos/web2py/gluon/packages/dal/pydal/objects.py", line 121, in as_dict\n    d[k] = v.as_dict()\n  File "/media/onzalo/datos/web2py/gluon/packages/dal/pydal/objects.py", line 121, in as_dict\n    d[k] = v.as_dict()\n  File "/media/onzalo/datos/web2py/gluon/packages/dal/pydal/objects.py", line 121, in as_dict\n    d[k] = v.as_dict()\n  File "/media/onzalo/datos/web2py/gluon/packages/dal/pydal/objects.py", line 121, in as_dict\n    d[k] = v.as_dict()\n  File "/media/onzalo/datos/web2py/gluon/packages/dal/pydal/objects.py", line 121, in as_dict\n    d[k] = v.as_dict()\n  File "/media/onzalo/datos/web2py/gluon/packages/dal/pydal/objects.py", line 121, in as_dict\n    d[k] = v.as_dict()\n  File "/media/onzalo/datos/web2py/gluon/packages/dal/pydal/objects.py", line 121, in as_dict\n    d[k] = v.as_dict()\n  File "/media/onzalo/datos/web2py/gluon/packages/dal/pydal/objects.py", line 115, in as_dict\n    d = dict(self)\n  File "/media/onzalo/datos/web2py/gluon/packages/dal/pydal/objects.py", line 45, in __getitem__\n    _extra = super(Row, self).get(\'_extra\', None)\n  File "/media/onzalo/datos/web2py/gluon/packages/dal/pydal/helpers/classes.py", line 42, in get\n    def get(self, key, default=None):\n  File "/media/onzalo/datos/web2py/gluon/contrib/qdb.py", line 91, in trace_dispatch\n    return self.dispatch_call(frame, arg)\n  File "/home/onzalo/anaconda3/envs/py27/lib/python2.7/bdb.py", line 77, in dispatch_call\n    if not (self.stop_here(frame) or self.break_anywhere(frame)):\n  File "/home/onzalo/anaconda3/envs/py27/lib/python2.7/bdb.py", line 152, in break_anywhere\n    return self.canonic(frame.f_code.co_filename) in self.breaks\n  File "/home/onzalo/anaconda3/envs/py27/lib/python2.7/bdb.py", line 30, in canonic\n    if filename == "<" + filename[1:-1] + ">":\nRuntimeError: maximum recursion depth exceeded in cmp\n'
p11
s.